ARM GAS  C:\Users\11410\AppData\Local\Temp\ccyr0cta.s 			page 1


   1              		.cpu cortex-m4
   2              		.eabi_attribute 27, 1
   3              		.eabi_attribute 28, 1
   4              		.eabi_attribute 20, 1
   5              		.eabi_attribute 21, 1
   6              		.eabi_attribute 23, 3
   7              		.eabi_attribute 24, 1
   8              		.eabi_attribute 25, 1
   9              		.eabi_attribute 26, 1
  10              		.eabi_attribute 30, 1
  11              		.eabi_attribute 34, 1
  12              		.eabi_attribute 18, 4
  13              		.file	"indcpa.c"
  14              		.text
  15              	.Ltext0:
  16              		.cfi_sections	.debug_frame
  17              		.section	.text.pack_sk,"ax",%progbits
  18              		.align	1
  19              		.arch armv7e-m
  20              		.syntax unified
  21              		.thumb
  22              		.thumb_func
  23              		.fpu fpv4-sp-d16
  25              	pack_sk:
  26              	.LVL0:
  27              	.LFB4:
  28              		.file 1 "Core/Src/indcpa.c"
   1:Core/Src/indcpa.c **** #include <string.h>
   2:Core/Src/indcpa.c **** #include "indcpa.h"
   3:Core/Src/indcpa.c **** #include "poly.h"
   4:Core/Src/indcpa.c **** #include "polyvec.h"
   5:Core/Src/indcpa.c **** #include "randombytes.h"
   6:Core/Src/indcpa.c **** #include "fips202.h"
   7:Core/Src/indcpa.c **** #include "ntt.h"
   8:Core/Src/indcpa.c **** 
   9:Core/Src/indcpa.c **** /*************************************************
  10:Core/Src/indcpa.c **** * Name:        pack_pk
  11:Core/Src/indcpa.c **** * 
  12:Core/Src/indcpa.c **** * Description: Serialize the public key as concatenation of the
  13:Core/Src/indcpa.c **** *              compressed and serialized vector of polynomials pk 
  14:Core/Src/indcpa.c **** *              and the public seed used to generate the matrix A.
  15:Core/Src/indcpa.c **** *
  16:Core/Src/indcpa.c **** * Arguments:   unsigned char *r:          pointer to the output serialized public key
  17:Core/Src/indcpa.c **** *              const poly *pk:            pointer to the input public-key polynomial
  18:Core/Src/indcpa.c **** *              const unsigned char *seed: pointer to the input public seed
  19:Core/Src/indcpa.c **** **************************************************/
  20:Core/Src/indcpa.c **** static void pack_pk(unsigned char *r, const polyvec *pk, const unsigned char *seed)
  21:Core/Src/indcpa.c **** {
  22:Core/Src/indcpa.c ****   int i;
  23:Core/Src/indcpa.c ****   polyvec_compress(r, pk);
  24:Core/Src/indcpa.c ****   for(i=0;i<KYBER_SYMBYTES;i++)
  25:Core/Src/indcpa.c ****     r[i+KYBER_POLYVECCOMPRESSEDBYTES] = seed[i];
  26:Core/Src/indcpa.c **** }
  27:Core/Src/indcpa.c **** 
  28:Core/Src/indcpa.c **** /*************************************************
  29:Core/Src/indcpa.c **** * Name:        unpack_pk
  30:Core/Src/indcpa.c **** * 
ARM GAS  C:\Users\11410\AppData\Local\Temp\ccyr0cta.s 			page 2


  31:Core/Src/indcpa.c **** * Description: De-serialize and decompress public key from a byte array;
  32:Core/Src/indcpa.c **** *              approximate inverse of pack_pk
  33:Core/Src/indcpa.c **** *
  34:Core/Src/indcpa.c **** * Arguments:   - polyvec *pk:                   pointer to output public-key vector of polynomials
  35:Core/Src/indcpa.c **** *              - unsigned char *seed:           pointer to output seed to generate matrix A
  36:Core/Src/indcpa.c **** *              - const unsigned char *packedpk: pointer to input serialized public key
  37:Core/Src/indcpa.c **** **************************************************/
  38:Core/Src/indcpa.c **** static void unpack_pk(polyvec *pk, unsigned char *seed, const unsigned char *packedpk)
  39:Core/Src/indcpa.c **** {
  40:Core/Src/indcpa.c ****   int i;
  41:Core/Src/indcpa.c ****   polyvec_decompress(pk, packedpk);
  42:Core/Src/indcpa.c **** 
  43:Core/Src/indcpa.c ****   for(i=0;i<KYBER_SYMBYTES;i++)
  44:Core/Src/indcpa.c ****     seed[i] = packedpk[i+KYBER_POLYVECCOMPRESSEDBYTES];
  45:Core/Src/indcpa.c **** }
  46:Core/Src/indcpa.c **** 
  47:Core/Src/indcpa.c **** /*************************************************
  48:Core/Src/indcpa.c **** * Name:        pack_ciphertext
  49:Core/Src/indcpa.c **** * 
  50:Core/Src/indcpa.c **** * Description: Serialize the ciphertext as concatenation of the
  51:Core/Src/indcpa.c **** *              compressed and serialized vector of polynomials b
  52:Core/Src/indcpa.c **** *              and the compressed and serialized polynomial v
  53:Core/Src/indcpa.c **** *
  54:Core/Src/indcpa.c **** * Arguments:   unsigned char *r:          pointer to the output serialized ciphertext
  55:Core/Src/indcpa.c **** *              const poly *pk:            pointer to the input vector of polynomials b
  56:Core/Src/indcpa.c **** *              const unsigned char *seed: pointer to the input polynomial v
  57:Core/Src/indcpa.c **** **************************************************/
  58:Core/Src/indcpa.c **** static void pack_ciphertext(unsigned char *r, const polyvec *b, const poly *v)
  59:Core/Src/indcpa.c **** {
  60:Core/Src/indcpa.c ****   polyvec_compress(r, b);
  61:Core/Src/indcpa.c ****   poly_compress(r+KYBER_POLYVECCOMPRESSEDBYTES, v);
  62:Core/Src/indcpa.c **** }
  63:Core/Src/indcpa.c **** 
  64:Core/Src/indcpa.c **** /*************************************************
  65:Core/Src/indcpa.c **** * Name:        unpack_ciphertext
  66:Core/Src/indcpa.c **** * 
  67:Core/Src/indcpa.c **** * Description: De-serialize and decompress ciphertext from a byte array;
  68:Core/Src/indcpa.c **** *              approximate inverse of pack_ciphertext
  69:Core/Src/indcpa.c **** *
  70:Core/Src/indcpa.c **** * Arguments:   - polyvec *b:             pointer to the output vector of polynomials b
  71:Core/Src/indcpa.c **** *              - poly *v:                pointer to the output polynomial v
  72:Core/Src/indcpa.c **** *              - const unsigned char *c: pointer to the input serialized ciphertext
  73:Core/Src/indcpa.c **** **************************************************/
  74:Core/Src/indcpa.c **** static void unpack_ciphertext(polyvec *b, poly *v, const unsigned char *c)
  75:Core/Src/indcpa.c **** {
  76:Core/Src/indcpa.c ****   polyvec_decompress(b, c);
  77:Core/Src/indcpa.c ****   poly_decompress(v, c+KYBER_POLYVECCOMPRESSEDBYTES);
  78:Core/Src/indcpa.c **** }
  79:Core/Src/indcpa.c **** 
  80:Core/Src/indcpa.c **** /*************************************************
  81:Core/Src/indcpa.c **** * Name:        pack_sk
  82:Core/Src/indcpa.c **** * 
  83:Core/Src/indcpa.c **** * Description: Serialize the secret key
  84:Core/Src/indcpa.c **** *
  85:Core/Src/indcpa.c **** * Arguments:   - unsigned char *r:  pointer to output serialized secret key
  86:Core/Src/indcpa.c **** *              - const polyvec *sk: pointer to input vector of polynomials (secret key)
  87:Core/Src/indcpa.c **** **************************************************/
ARM GAS  C:\Users\11410\AppData\Local\Temp\ccyr0cta.s 			page 3


  88:Core/Src/indcpa.c **** static void pack_sk(unsigned char *r, const polyvec *sk)
  89:Core/Src/indcpa.c **** {
  29              		.loc 1 89 1 view -0
  30              		.cfi_startproc
  31              		@ args = 0, pretend = 0, frame = 0
  32              		@ frame_needed = 0, uses_anonymous_args = 0
  33              		.loc 1 89 1 is_stmt 0 view .LVU1
  34 0000 08B5     		push	{r3, lr}
  35              	.LCFI0:
  36              		.cfi_def_cfa_offset 8
  37              		.cfi_offset 3, -8
  38              		.cfi_offset 14, -4
  90:Core/Src/indcpa.c ****   polyvec_tobytes(r, sk);
  39              		.loc 1 90 3 is_stmt 1 view .LVU2
  40 0002 FFF7FEFF 		bl	polyvec_tobytes
  41              	.LVL1:
  91:Core/Src/indcpa.c **** }
  42              		.loc 1 91 1 is_stmt 0 view .LVU3
  43 0006 08BD     		pop	{r3, pc}
  44              		.cfi_endproc
  45              	.LFE4:
  47              		.section	.text.pack_pk,"ax",%progbits
  48              		.align	1
  49              		.syntax unified
  50              		.thumb
  51              		.thumb_func
  52              		.fpu fpv4-sp-d16
  54              	pack_pk:
  55              	.LVL2:
  56              	.LFB0:
  21:Core/Src/indcpa.c ****   int i;
  57              		.loc 1 21 1 is_stmt 1 view -0
  58              		.cfi_startproc
  59              		@ args = 0, pretend = 0, frame = 0
  60              		@ frame_needed = 0, uses_anonymous_args = 0
  21:Core/Src/indcpa.c ****   int i;
  61              		.loc 1 21 1 is_stmt 0 view .LVU5
  62 0000 70B5     		push	{r4, r5, r6, lr}
  63              	.LCFI1:
  64              		.cfi_def_cfa_offset 16
  65              		.cfi_offset 4, -16
  66              		.cfi_offset 5, -12
  67              		.cfi_offset 6, -8
  68              		.cfi_offset 14, -4
  69 0002 0646     		mov	r6, r0
  70 0004 1546     		mov	r5, r2
  22:Core/Src/indcpa.c ****   polyvec_compress(r, pk);
  71              		.loc 1 22 3 is_stmt 1 view .LVU6
  23:Core/Src/indcpa.c ****   for(i=0;i<KYBER_SYMBYTES;i++)
  72              		.loc 1 23 3 view .LVU7
  73 0006 FFF7FEFF 		bl	polyvec_compress
  74              	.LVL3:
  24:Core/Src/indcpa.c ****     r[i+KYBER_POLYVECCOMPRESSEDBYTES] = seed[i];
  75              		.loc 1 24 3 view .LVU8
  24:Core/Src/indcpa.c ****     r[i+KYBER_POLYVECCOMPRESSEDBYTES] = seed[i];
  76              		.loc 1 24 8 is_stmt 0 view .LVU9
  77 000a 0023     		movs	r3, #0
ARM GAS  C:\Users\11410\AppData\Local\Temp\ccyr0cta.s 			page 4


  78              	.LVL4:
  79              	.L4:
  24:Core/Src/indcpa.c ****     r[i+KYBER_POLYVECCOMPRESSEDBYTES] = seed[i];
  80              		.loc 1 24 11 is_stmt 1 discriminator 1 view .LVU10
  24:Core/Src/indcpa.c ****     r[i+KYBER_POLYVECCOMPRESSEDBYTES] = seed[i];
  81              		.loc 1 24 3 is_stmt 0 discriminator 1 view .LVU11
  82 000c 1F2B     		cmp	r3, #31
  83 000e 05DC     		bgt	.L7
  25:Core/Src/indcpa.c **** }
  84              		.loc 1 25 5 is_stmt 1 discriminator 3 view .LVU12
  25:Core/Src/indcpa.c **** }
  85              		.loc 1 25 6 is_stmt 0 discriminator 3 view .LVU13
  86 0010 03F58461 		add	r1, r3, #1056
  25:Core/Src/indcpa.c **** }
  87              		.loc 1 25 45 discriminator 3 view .LVU14
  88 0014 EC5C     		ldrb	r4, [r5, r3]	@ zero_extendqisi2
  25:Core/Src/indcpa.c **** }
  89              		.loc 1 25 39 discriminator 3 view .LVU15
  90 0016 7454     		strb	r4, [r6, r1]
  24:Core/Src/indcpa.c ****     r[i+KYBER_POLYVECCOMPRESSEDBYTES] = seed[i];
  91              		.loc 1 24 28 is_stmt 1 discriminator 3 view .LVU16
  24:Core/Src/indcpa.c ****     r[i+KYBER_POLYVECCOMPRESSEDBYTES] = seed[i];
  92              		.loc 1 24 29 is_stmt 0 discriminator 3 view .LVU17
  93 0018 0133     		adds	r3, r3, #1
  94              	.LVL5:
  24:Core/Src/indcpa.c ****     r[i+KYBER_POLYVECCOMPRESSEDBYTES] = seed[i];
  95              		.loc 1 24 29 discriminator 3 view .LVU18
  96 001a F7E7     		b	.L4
  97              	.L7:
  26:Core/Src/indcpa.c **** 
  98              		.loc 1 26 1 view .LVU19
  99 001c 70BD     		pop	{r4, r5, r6, pc}
  26:Core/Src/indcpa.c **** 
 100              		.loc 1 26 1 view .LVU20
 101              		.cfi_endproc
 102              	.LFE0:
 104              		.section	.text.unpack_pk,"ax",%progbits
 105              		.align	1
 106              		.syntax unified
 107              		.thumb
 108              		.thumb_func
 109              		.fpu fpv4-sp-d16
 111              	unpack_pk:
 112              	.LVL6:
 113              	.LFB1:
  39:Core/Src/indcpa.c ****   int i;
 114              		.loc 1 39 1 is_stmt 1 view -0
 115              		.cfi_startproc
 116              		@ args = 0, pretend = 0, frame = 0
 117              		@ frame_needed = 0, uses_anonymous_args = 0
  39:Core/Src/indcpa.c ****   int i;
 118              		.loc 1 39 1 is_stmt 0 view .LVU22
 119 0000 38B5     		push	{r3, r4, r5, lr}
 120              	.LCFI2:
 121              		.cfi_def_cfa_offset 16
 122              		.cfi_offset 3, -16
 123              		.cfi_offset 4, -12
ARM GAS  C:\Users\11410\AppData\Local\Temp\ccyr0cta.s 			page 5


 124              		.cfi_offset 5, -8
 125              		.cfi_offset 14, -4
 126 0002 0D46     		mov	r5, r1
 127 0004 1446     		mov	r4, r2
  40:Core/Src/indcpa.c ****   polyvec_decompress(pk, packedpk);
 128              		.loc 1 40 3 is_stmt 1 view .LVU23
  41:Core/Src/indcpa.c **** 
 129              		.loc 1 41 3 view .LVU24
 130 0006 1146     		mov	r1, r2
 131              	.LVL7:
  41:Core/Src/indcpa.c **** 
 132              		.loc 1 41 3 is_stmt 0 view .LVU25
 133 0008 FFF7FEFF 		bl	polyvec_decompress
 134              	.LVL8:
  43:Core/Src/indcpa.c ****     seed[i] = packedpk[i+KYBER_POLYVECCOMPRESSEDBYTES];
 135              		.loc 1 43 3 is_stmt 1 view .LVU26
  43:Core/Src/indcpa.c ****     seed[i] = packedpk[i+KYBER_POLYVECCOMPRESSEDBYTES];
 136              		.loc 1 43 8 is_stmt 0 view .LVU27
 137 000c 0023     		movs	r3, #0
 138              	.LVL9:
 139              	.L9:
  43:Core/Src/indcpa.c ****     seed[i] = packedpk[i+KYBER_POLYVECCOMPRESSEDBYTES];
 140              		.loc 1 43 11 is_stmt 1 discriminator 1 view .LVU28
  43:Core/Src/indcpa.c ****     seed[i] = packedpk[i+KYBER_POLYVECCOMPRESSEDBYTES];
 141              		.loc 1 43 3 is_stmt 0 discriminator 1 view .LVU29
 142 000e 1F2B     		cmp	r3, #31
 143 0010 05DC     		bgt	.L12
  44:Core/Src/indcpa.c **** }
 144              		.loc 1 44 5 is_stmt 1 discriminator 3 view .LVU30
  44:Core/Src/indcpa.c **** }
 145              		.loc 1 44 23 is_stmt 0 discriminator 3 view .LVU31
 146 0012 E018     		adds	r0, r4, r3
 147 0014 90F82004 		ldrb	r0, [r0, #1056]	@ zero_extendqisi2
  44:Core/Src/indcpa.c **** }
 148              		.loc 1 44 13 discriminator 3 view .LVU32
 149 0018 E854     		strb	r0, [r5, r3]
  43:Core/Src/indcpa.c ****     seed[i] = packedpk[i+KYBER_POLYVECCOMPRESSEDBYTES];
 150              		.loc 1 43 28 is_stmt 1 discriminator 3 view .LVU33
  43:Core/Src/indcpa.c ****     seed[i] = packedpk[i+KYBER_POLYVECCOMPRESSEDBYTES];
 151              		.loc 1 43 29 is_stmt 0 discriminator 3 view .LVU34
 152 001a 0133     		adds	r3, r3, #1
 153              	.LVL10:
  43:Core/Src/indcpa.c ****     seed[i] = packedpk[i+KYBER_POLYVECCOMPRESSEDBYTES];
 154              		.loc 1 43 29 discriminator 3 view .LVU35
 155 001c F7E7     		b	.L9
 156              	.L12:
  45:Core/Src/indcpa.c **** 
 157              		.loc 1 45 1 view .LVU36
 158 001e 38BD     		pop	{r3, r4, r5, pc}
  45:Core/Src/indcpa.c **** 
 159              		.loc 1 45 1 view .LVU37
 160              		.cfi_endproc
 161              	.LFE1:
 163              		.section	.text.pack_ciphertext,"ax",%progbits
 164              		.align	1
 165              		.syntax unified
 166              		.thumb
ARM GAS  C:\Users\11410\AppData\Local\Temp\ccyr0cta.s 			page 6


 167              		.thumb_func
 168              		.fpu fpv4-sp-d16
 170              	pack_ciphertext:
 171              	.LVL11:
 172              	.LFB2:
  59:Core/Src/indcpa.c ****   polyvec_compress(r, b);
 173              		.loc 1 59 1 is_stmt 1 view -0
 174              		.cfi_startproc
 175              		@ args = 0, pretend = 0, frame = 0
 176              		@ frame_needed = 0, uses_anonymous_args = 0
  59:Core/Src/indcpa.c ****   polyvec_compress(r, b);
 177              		.loc 1 59 1 is_stmt 0 view .LVU39
 178 0000 38B5     		push	{r3, r4, r5, lr}
 179              	.LCFI3:
 180              		.cfi_def_cfa_offset 16
 181              		.cfi_offset 3, -16
 182              		.cfi_offset 4, -12
 183              		.cfi_offset 5, -8
 184              		.cfi_offset 14, -4
 185 0002 0446     		mov	r4, r0
 186 0004 1546     		mov	r5, r2
  60:Core/Src/indcpa.c ****   poly_compress(r+KYBER_POLYVECCOMPRESSEDBYTES, v);
 187              		.loc 1 60 3 is_stmt 1 view .LVU40
 188 0006 FFF7FEFF 		bl	polyvec_compress
 189              	.LVL12:
  61:Core/Src/indcpa.c **** }
 190              		.loc 1 61 3 view .LVU41
 191 000a 2946     		mov	r1, r5
 192 000c 04F58460 		add	r0, r4, #1056
 193 0010 FFF7FEFF 		bl	poly_compress
 194              	.LVL13:
  62:Core/Src/indcpa.c **** 
 195              		.loc 1 62 1 is_stmt 0 view .LVU42
 196 0014 38BD     		pop	{r3, r4, r5, pc}
  62:Core/Src/indcpa.c **** 
 197              		.loc 1 62 1 view .LVU43
 198              		.cfi_endproc
 199              	.LFE2:
 201              		.section	.text.unpack_ciphertext,"ax",%progbits
 202              		.align	1
 203              		.syntax unified
 204              		.thumb
 205              		.thumb_func
 206              		.fpu fpv4-sp-d16
 208              	unpack_ciphertext:
 209              	.LVL14:
 210              	.LFB3:
  75:Core/Src/indcpa.c ****   polyvec_decompress(b, c);
 211              		.loc 1 75 1 is_stmt 1 view -0
 212              		.cfi_startproc
 213              		@ args = 0, pretend = 0, frame = 0
 214              		@ frame_needed = 0, uses_anonymous_args = 0
  75:Core/Src/indcpa.c ****   polyvec_decompress(b, c);
 215              		.loc 1 75 1 is_stmt 0 view .LVU45
 216 0000 38B5     		push	{r3, r4, r5, lr}
 217              	.LCFI4:
 218              		.cfi_def_cfa_offset 16
ARM GAS  C:\Users\11410\AppData\Local\Temp\ccyr0cta.s 			page 7


 219              		.cfi_offset 3, -16
 220              		.cfi_offset 4, -12
 221              		.cfi_offset 5, -8
 222              		.cfi_offset 14, -4
 223 0002 0D46     		mov	r5, r1
 224 0004 1446     		mov	r4, r2
  76:Core/Src/indcpa.c ****   poly_decompress(v, c+KYBER_POLYVECCOMPRESSEDBYTES);
 225              		.loc 1 76 3 is_stmt 1 view .LVU46
 226 0006 1146     		mov	r1, r2
 227              	.LVL15:
  76:Core/Src/indcpa.c ****   poly_decompress(v, c+KYBER_POLYVECCOMPRESSEDBYTES);
 228              		.loc 1 76 3 is_stmt 0 view .LVU47
 229 0008 FFF7FEFF 		bl	polyvec_decompress
 230              	.LVL16:
  77:Core/Src/indcpa.c **** }
 231              		.loc 1 77 3 is_stmt 1 view .LVU48
 232 000c 04F58461 		add	r1, r4, #1056
 233 0010 2846     		mov	r0, r5
 234 0012 FFF7FEFF 		bl	poly_decompress
 235              	.LVL17:
  78:Core/Src/indcpa.c **** 
 236              		.loc 1 78 1 is_stmt 0 view .LVU49
 237 0016 38BD     		pop	{r3, r4, r5, pc}
  78:Core/Src/indcpa.c **** 
 238              		.loc 1 78 1 view .LVU50
 239              		.cfi_endproc
 240              	.LFE3:
 242              		.section	.text.unpack_sk,"ax",%progbits
 243              		.align	1
 244              		.syntax unified
 245              		.thumb
 246              		.thumb_func
 247              		.fpu fpv4-sp-d16
 249              	unpack_sk:
 250              	.LVL18:
 251              	.LFB5:
  92:Core/Src/indcpa.c **** 
  93:Core/Src/indcpa.c **** /*************************************************
  94:Core/Src/indcpa.c **** * Name:        unpack_sk
  95:Core/Src/indcpa.c **** * 
  96:Core/Src/indcpa.c **** * Description: De-serialize the secret key;
  97:Core/Src/indcpa.c **** *              inverse of pack_sk
  98:Core/Src/indcpa.c **** *
  99:Core/Src/indcpa.c **** * Arguments:   - polyvec *sk:                   pointer to output vector of polynomials (secret key
 100:Core/Src/indcpa.c **** *              - const unsigned char *packedsk: pointer to input serialized secret key
 101:Core/Src/indcpa.c **** **************************************************/
 102:Core/Src/indcpa.c **** static void unpack_sk(polyvec *sk, const unsigned char *packedsk)
 103:Core/Src/indcpa.c **** {
 252              		.loc 1 103 1 is_stmt 1 view -0
 253              		.cfi_startproc
 254              		@ args = 0, pretend = 0, frame = 0
 255              		@ frame_needed = 0, uses_anonymous_args = 0
 256              		.loc 1 103 1 is_stmt 0 view .LVU52
 257 0000 08B5     		push	{r3, lr}
 258              	.LCFI5:
 259              		.cfi_def_cfa_offset 8
 260              		.cfi_offset 3, -8
ARM GAS  C:\Users\11410\AppData\Local\Temp\ccyr0cta.s 			page 8


 261              		.cfi_offset 14, -4
 104:Core/Src/indcpa.c ****   polyvec_frombytes(sk, packedsk);
 262              		.loc 1 104 3 is_stmt 1 view .LVU53
 263 0002 FFF7FEFF 		bl	polyvec_frombytes
 264              	.LVL19:
 105:Core/Src/indcpa.c **** }
 265              		.loc 1 105 1 is_stmt 0 view .LVU54
 266 0006 08BD     		pop	{r3, pc}
 267              		.cfi_endproc
 268              	.LFE5:
 270              		.section	.text.gen_matrix,"ax",%progbits
 271              		.align	1
 272              		.global	gen_matrix
 273              		.syntax unified
 274              		.thumb
 275              		.thumb_func
 276              		.fpu fpv4-sp-d16
 278              	gen_matrix:
 279              	.LVL20:
 280              	.LFB6:
 106:Core/Src/indcpa.c **** 
 107:Core/Src/indcpa.c **** #define gen_a(A,B)  gen_matrix(A,B,0)
 108:Core/Src/indcpa.c **** #define gen_at(A,B) gen_matrix(A,B,1)
 109:Core/Src/indcpa.c **** 
 110:Core/Src/indcpa.c **** /*************************************************
 111:Core/Src/indcpa.c **** * Name:        gen_matrix
 112:Core/Src/indcpa.c **** * 
 113:Core/Src/indcpa.c **** * Description: Deterministically generate matrix A (or the transpose of A)
 114:Core/Src/indcpa.c **** *              from a seed. Entries of the matrix are polynomials that look
 115:Core/Src/indcpa.c **** *              uniformly random. Performs rejection sampling on output of 
 116:Core/Src/indcpa.c **** *              SHAKE-128
 117:Core/Src/indcpa.c **** *
 118:Core/Src/indcpa.c **** * Arguments:   - polyvec *a:                pointer to ouptput matrix A
 119:Core/Src/indcpa.c **** *              - const unsigned char *seed: pointer to input seed
 120:Core/Src/indcpa.c **** *              - int transposed:            boolean deciding whether A or A^T is generated
 121:Core/Src/indcpa.c **** **************************************************/
 122:Core/Src/indcpa.c **** void gen_matrix(polyvec *a, const unsigned char *seed, int transposed) // Not static for benchmarki
 123:Core/Src/indcpa.c **** {
 281              		.loc 1 123 1 is_stmt 1 view -0
 282              		.cfi_startproc
 283              		@ args = 0, pretend = 0, frame = 248
 284              		@ frame_needed = 1, uses_anonymous_args = 0
 285              		.loc 1 123 1 is_stmt 0 view .LVU56
 286 0000 2DE9F04F 		push	{r4, r5, r6, r7, r8, r9, r10, fp, lr}
 287              	.LCFI6:
 288              		.cfi_def_cfa_offset 36
 289              		.cfi_offset 4, -36
 290              		.cfi_offset 5, -32
 291              		.cfi_offset 6, -28
 292              		.cfi_offset 7, -24
 293              		.cfi_offset 8, -20
 294              		.cfi_offset 9, -16
 295              		.cfi_offset 10, -12
 296              		.cfi_offset 11, -8
 297              		.cfi_offset 14, -4
 298 0004 C1B0     		sub	sp, sp, #260
 299              	.LCFI7:
ARM GAS  C:\Users\11410\AppData\Local\Temp\ccyr0cta.s 			page 9


 300              		.cfi_def_cfa_offset 296
 301 0006 02AF     		add	r7, sp, #8
 302              	.LCFI8:
 303              		.cfi_def_cfa 7, 288
 304 0008 8346     		mov	fp, r0
 305 000a 7A60     		str	r2, [r7, #4]
 124:Core/Src/indcpa.c ****   unsigned int pos=0, ctr;
 306              		.loc 1 124 3 is_stmt 1 view .LVU57
 307              	.LVL21:
 125:Core/Src/indcpa.c ****   uint16_t val;
 308              		.loc 1 125 3 view .LVU58
 126:Core/Src/indcpa.c ****   unsigned int nblocks=4;
 309              		.loc 1 126 3 view .LVU59
 127:Core/Src/indcpa.c ****   uint8_t buf[SHAKE128_RATE*nblocks];
 310              		.loc 1 127 3 view .LVU60
 311              		.loc 1 127 11 is_stmt 0 view .LVU61
 312 000c ADF5287D 		sub	sp, sp, #672
 313 0010 02AE     		add	r6, sp, #8
 314              	.LVL22:
 128:Core/Src/indcpa.c ****   int i,j;
 315              		.loc 1 128 3 is_stmt 1 view .LVU62
 129:Core/Src/indcpa.c ****   uint8_t state[200]; // SHAKE state
 316              		.loc 1 129 3 view .LVU63
 130:Core/Src/indcpa.c ****   unsigned char extseed[KYBER_SYMBYTES+2];
 317              		.loc 1 130 3 view .LVU64
 131:Core/Src/indcpa.c **** 
 132:Core/Src/indcpa.c ****   for(i=0;i<KYBER_SYMBYTES;i++)
 318              		.loc 1 132 3 view .LVU65
 319              		.loc 1 132 8 is_stmt 0 view .LVU66
 320 0012 0023     		movs	r3, #0
 321              	.LVL23:
 322              	.L20:
 323              		.loc 1 132 11 is_stmt 1 discriminator 1 view .LVU67
 324              		.loc 1 132 3 is_stmt 0 discriminator 1 view .LVU68
 325 0014 1F2B     		cmp	r3, #31
 326 0016 07DC     		bgt	.L33
 133:Core/Src/indcpa.c ****     extseed[i] = seed[i];
 327              		.loc 1 133 5 is_stmt 1 discriminator 3 view .LVU69
 328              		.loc 1 133 22 is_stmt 0 discriminator 3 view .LVU70
 329 0018 C85C     		ldrb	r0, [r1, r3]	@ zero_extendqisi2
 330              		.loc 1 133 16 discriminator 3 view .LVU71
 331 001a 07F1F802 		add	r2, r7, #248
 332              	.LVL24:
 333              		.loc 1 133 16 discriminator 3 view .LVU72
 334 001e 1A44     		add	r2, r2, r3
 335              	.LVL25:
 336              		.loc 1 133 16 discriminator 3 view .LVU73
 337 0020 02F8EC0C 		strb	r0, [r2, #-236]
 132:Core/Src/indcpa.c ****     extseed[i] = seed[i];
 338              		.loc 1 132 28 is_stmt 1 discriminator 3 view .LVU74
 132:Core/Src/indcpa.c ****     extseed[i] = seed[i];
 339              		.loc 1 132 29 is_stmt 0 discriminator 3 view .LVU75
 340 0024 0133     		adds	r3, r3, #1
 341              	.LVL26:
 132:Core/Src/indcpa.c ****     extseed[i] = seed[i];
 342              		.loc 1 132 29 discriminator 3 view .LVU76
 343 0026 F5E7     		b	.L20
ARM GAS  C:\Users\11410\AppData\Local\Temp\ccyr0cta.s 			page 10


 344              	.L33:
 134:Core/Src/indcpa.c **** 
 135:Core/Src/indcpa.c ****   for(i=0;i<KYBER_K;i++)
 345              		.loc 1 135 8 view .LVU77
 346 0028 4FF00009 		mov	r9, #0
 126:Core/Src/indcpa.c ****   uint8_t buf[SHAKE128_RATE*nblocks];
 347              		.loc 1 126 16 view .LVU78
 348 002c 4FF00408 		mov	r8, #4
 349 0030 4CE0     		b	.L22
 350              	.LVL27:
 351              	.L23:
 136:Core/Src/indcpa.c ****   {
 137:Core/Src/indcpa.c ****     for(j=0;j<KYBER_K;j++)
 138:Core/Src/indcpa.c ****     {
 139:Core/Src/indcpa.c ****       ctr = pos = 0;
 140:Core/Src/indcpa.c ****       if(transposed) 
 141:Core/Src/indcpa.c ****       {
 142:Core/Src/indcpa.c ****         extseed[KYBER_SYMBYTES]   = i;
 143:Core/Src/indcpa.c ****         extseed[KYBER_SYMBYTES+1] = j;
 144:Core/Src/indcpa.c ****       }
 145:Core/Src/indcpa.c ****       else
 146:Core/Src/indcpa.c ****       {
 147:Core/Src/indcpa.c ****         extseed[KYBER_SYMBYTES]   = j;
 352              		.loc 1 147 9 is_stmt 1 view .LVU79
 353              		.loc 1 147 35 is_stmt 0 view .LVU80
 354 0032 87F82CA0 		strb	r10, [r7, #44]
 148:Core/Src/indcpa.c ****         extseed[KYBER_SYMBYTES+1] = i;
 355              		.loc 1 148 9 is_stmt 1 view .LVU81
 356              		.loc 1 148 35 is_stmt 0 view .LVU82
 357 0036 87F82D90 		strb	r9, [r7, #45]
 358 003a 34E0     		b	.L24
 359              	.LVL28:
 360              	.L26:
 149:Core/Src/indcpa.c ****       }
 150:Core/Src/indcpa.c ****         
 151:Core/Src/indcpa.c ****       shake128_absorb(state,extseed,KYBER_SYMBYTES+2);
 152:Core/Src/indcpa.c ****       shake128_squeezeblocks(buf,nblocks,state);
 153:Core/Src/indcpa.c **** 
 154:Core/Src/indcpa.c ****       while(ctr < KYBER_N)
 155:Core/Src/indcpa.c ****       {
 156:Core/Src/indcpa.c ****         val = (buf[pos] | ((uint16_t) buf[pos+1] << 8)) & 0x1fff;
 157:Core/Src/indcpa.c ****         if(val < KYBER_Q)
 158:Core/Src/indcpa.c ****         {
 159:Core/Src/indcpa.c ****             a[i].vec[j].coeffs[ctr++] = val;
 160:Core/Src/indcpa.c ****         }
 161:Core/Src/indcpa.c ****         pos += 2;
 361              		.loc 1 161 9 is_stmt 1 view .LVU83
 362              		.loc 1 161 13 is_stmt 0 view .LVU84
 363 003c 0234     		adds	r4, r4, #2
 364              	.LVL29:
 162:Core/Src/indcpa.c **** 
 163:Core/Src/indcpa.c ****         if(pos > SHAKE128_RATE*nblocks-2)
 365              		.loc 1 163 9 is_stmt 1 view .LVU85
 366              		.loc 1 163 31 is_stmt 0 view .LVU86
 367 003e A823     		movs	r3, #168
 368              	.LVL30:
 369              		.loc 1 163 31 view .LVU87
ARM GAS  C:\Users\11410\AppData\Local\Temp\ccyr0cta.s 			page 11


 370 0040 03FB08F3 		mul	r3, r3, r8
 371              		.loc 1 163 39 view .LVU88
 372 0044 023B     		subs	r3, r3, #2
 373              		.loc 1 163 11 view .LVU89
 374 0046 A342     		cmp	r3, r4
 375 0048 15D3     		bcc	.L34
 376              	.LVL31:
 377              	.L25:
 154:Core/Src/indcpa.c ****       {
 378              		.loc 1 154 12 is_stmt 1 view .LVU90
 379 004a FF2D     		cmp	r5, #255
 380 004c 1FD8     		bhi	.L35
 156:Core/Src/indcpa.c ****         if(val < KYBER_Q)
 381              		.loc 1 156 9 view .LVU91
 156:Core/Src/indcpa.c ****         if(val < KYBER_Q)
 382              		.loc 1 156 19 is_stmt 0 view .LVU92
 383 004e 335D     		ldrb	r3, [r6, r4]	@ zero_extendqisi2
 156:Core/Src/indcpa.c ****         if(val < KYBER_Q)
 384              		.loc 1 156 46 view .LVU93
 385 0050 621C     		adds	r2, r4, #1
 156:Core/Src/indcpa.c ****         if(val < KYBER_Q)
 386              		.loc 1 156 42 view .LVU94
 387 0052 B25C     		ldrb	r2, [r6, r2]	@ zero_extendqisi2
 156:Core/Src/indcpa.c ****         if(val < KYBER_Q)
 388              		.loc 1 156 57 view .LVU95
 389 0054 43EA0223 		orr	r3, r3, r2, lsl #8
 156:Core/Src/indcpa.c ****         if(val < KYBER_Q)
 390              		.loc 1 156 13 view .LVU96
 391 0058 C3F30C03 		ubfx	r3, r3, #0, #13
 392              	.LVL32:
 157:Core/Src/indcpa.c ****         {
 393              		.loc 1 157 9 is_stmt 1 view .LVU97
 157:Core/Src/indcpa.c ****         {
 394              		.loc 1 157 11 is_stmt 0 view .LVU98
 395 005c B3F5F05F 		cmp	r3, #7680
 396 0060 ECD8     		bhi	.L26
 159:Core/Src/indcpa.c ****         }
 397              		.loc 1 159 13 is_stmt 1 view .LVU99
 159:Core/Src/indcpa.c ****         }
 398              		.loc 1 159 14 is_stmt 0 view .LVU100
 399 0062 09EB4902 		add	r2, r9, r9, lsl #1
 400 0066 0BEB4222 		add	r2, fp, r2, lsl #9
 401              	.LVL33:
 159:Core/Src/indcpa.c ****         }
 402              		.loc 1 159 39 view .LVU101
 403 006a 05EB0A21 		add	r1, r5, r10, lsl #8
 404 006e 22F81130 		strh	r3, [r2, r1, lsl #1]	@ movhi
 159:Core/Src/indcpa.c ****         }
 405              		.loc 1 159 35 view .LVU102
 406 0072 0135     		adds	r5, r5, #1
 407              	.LVL34:
 159:Core/Src/indcpa.c ****         }
 408              		.loc 1 159 35 view .LVU103
 409 0074 E2E7     		b	.L26
 410              	.LVL35:
 411              	.L34:
 164:Core/Src/indcpa.c ****         {
ARM GAS  C:\Users\11410\AppData\Local\Temp\ccyr0cta.s 			page 12


 165:Core/Src/indcpa.c ****           nblocks = 1;
 412              		.loc 1 165 11 is_stmt 1 view .LVU104
 166:Core/Src/indcpa.c ****           shake128_squeezeblocks(buf,nblocks,state);
 413              		.loc 1 166 11 view .LVU105
 414 0076 07F13003 		add	r3, r7, #48
 415 007a 0093     		str	r3, [sp]
 416 007c 0122     		movs	r2, #1
 417 007e 0023     		movs	r3, #0
 418 0080 3046     		mov	r0, r6
 419 0082 FFF7FEFF 		bl	shake128_squeezeblocks
 420              	.LVL36:
 167:Core/Src/indcpa.c ****           pos = 0;
 421              		.loc 1 167 11 view .LVU106
 165:Core/Src/indcpa.c ****           shake128_squeezeblocks(buf,nblocks,state);
 422              		.loc 1 165 19 is_stmt 0 view .LVU107
 423 0086 4FF00108 		mov	r8, #1
 424              		.loc 1 167 15 view .LVU108
 425 008a 0024     		movs	r4, #0
 426 008c DDE7     		b	.L25
 427              	.LVL37:
 428              	.L35:
 137:Core/Src/indcpa.c ****     {
 429              		.loc 1 137 23 is_stmt 1 discriminator 2 view .LVU109
 137:Core/Src/indcpa.c ****     {
 430              		.loc 1 137 24 is_stmt 0 discriminator 2 view .LVU110
 431 008e 0AF1010A 		add	r10, r10, #1
 432              	.LVL38:
 433              	.L30:
 137:Core/Src/indcpa.c ****     {
 434              		.loc 1 137 13 is_stmt 1 discriminator 1 view .LVU111
 137:Core/Src/indcpa.c ****     {
 435              		.loc 1 137 5 is_stmt 0 discriminator 1 view .LVU112
 436 0092 BAF1020F 		cmp	r10, #2
 437 0096 17DC     		bgt	.L36
 139:Core/Src/indcpa.c ****       if(transposed) 
 438              		.loc 1 139 7 is_stmt 1 view .LVU113
 439              	.LVL39:
 140:Core/Src/indcpa.c ****       {
 440              		.loc 1 140 7 view .LVU114
 140:Core/Src/indcpa.c ****       {
 441              		.loc 1 140 9 is_stmt 0 view .LVU115
 442 0098 7B68     		ldr	r3, [r7, #4]
 443 009a 002B     		cmp	r3, #0
 444 009c C9D0     		beq	.L23
 142:Core/Src/indcpa.c ****         extseed[KYBER_SYMBYTES+1] = j;
 445              		.loc 1 142 9 is_stmt 1 view .LVU116
 142:Core/Src/indcpa.c ****         extseed[KYBER_SYMBYTES+1] = j;
 446              		.loc 1 142 35 is_stmt 0 view .LVU117
 447 009e 87F82C90 		strb	r9, [r7, #44]
 143:Core/Src/indcpa.c ****       }
 448              		.loc 1 143 9 is_stmt 1 view .LVU118
 143:Core/Src/indcpa.c ****       }
 449              		.loc 1 143 35 is_stmt 0 view .LVU119
 450 00a2 87F82DA0 		strb	r10, [r7, #45]
 451              	.L24:
 151:Core/Src/indcpa.c ****       shake128_squeezeblocks(buf,nblocks,state);
 452              		.loc 1 151 7 is_stmt 1 view .LVU120
ARM GAS  C:\Users\11410\AppData\Local\Temp\ccyr0cta.s 			page 13


 453 00a6 07F13005 		add	r5, r7, #48
 454 00aa 2222     		movs	r2, #34
 455 00ac 07F10C01 		add	r1, r7, #12
 456 00b0 2846     		mov	r0, r5
 457 00b2 FFF7FEFF 		bl	shake128_absorb
 458              	.LVL40:
 152:Core/Src/indcpa.c **** 
 459              		.loc 1 152 7 view .LVU121
 460 00b6 0024     		movs	r4, #0
 461 00b8 0095     		str	r5, [sp]
 462 00ba 4246     		mov	r2, r8
 463 00bc 2346     		mov	r3, r4
 464 00be 3046     		mov	r0, r6
 465 00c0 FFF7FEFF 		bl	shake128_squeezeblocks
 466              	.LVL41:
 154:Core/Src/indcpa.c ****       {
 467              		.loc 1 154 7 view .LVU122
 139:Core/Src/indcpa.c ****       if(transposed) 
 468              		.loc 1 139 11 is_stmt 0 view .LVU123
 469 00c4 2546     		mov	r5, r4
 154:Core/Src/indcpa.c ****       {
 470              		.loc 1 154 12 view .LVU124
 471 00c6 C0E7     		b	.L25
 472              	.LVL42:
 473              	.L36:
 135:Core/Src/indcpa.c ****   {
 474              		.loc 1 135 21 is_stmt 1 discriminator 2 view .LVU125
 135:Core/Src/indcpa.c ****   {
 475              		.loc 1 135 22 is_stmt 0 discriminator 2 view .LVU126
 476 00c8 09F10109 		add	r9, r9, #1
 477              	.LVL43:
 478              	.L22:
 135:Core/Src/indcpa.c ****   {
 479              		.loc 1 135 11 is_stmt 1 discriminator 1 view .LVU127
 135:Core/Src/indcpa.c ****   {
 480              		.loc 1 135 3 is_stmt 0 discriminator 1 view .LVU128
 481 00cc B9F1020F 		cmp	r9, #2
 482 00d0 02DC     		bgt	.L37
 137:Core/Src/indcpa.c ****     {
 483              		.loc 1 137 10 view .LVU129
 484 00d2 4FF0000A 		mov	r10, #0
 485 00d6 DCE7     		b	.L30
 486              	.L37:
 168:Core/Src/indcpa.c ****         }
 169:Core/Src/indcpa.c ****       }
 170:Core/Src/indcpa.c ****     }
 171:Core/Src/indcpa.c ****   }
 172:Core/Src/indcpa.c **** }
 487              		.loc 1 172 1 view .LVU130
 488 00d8 FC37     		adds	r7, r7, #252
 489              	.LCFI9:
 490              		.cfi_def_cfa_offset 36
 491              	.LVL44:
 492              		.loc 1 172 1 view .LVU131
 493 00da BD46     		mov	sp, r7
 494              	.LCFI10:
 495              		.cfi_def_cfa_register 13
ARM GAS  C:\Users\11410\AppData\Local\Temp\ccyr0cta.s 			page 14


 496              		@ sp needed
 497 00dc BDE8F08F 		pop	{r4, r5, r6, r7, r8, r9, r10, fp, pc}
 498              		.loc 1 172 1 view .LVU132
 499              		.cfi_endproc
 500              	.LFE6:
 502              		.section	.rodata.indcpa_keypair.str1.4,"aMS",%progbits,1
 503              		.align	2
 504              	.LC0:
 505 0000 7075626C 		.ascii	"publicseed: \000"
 505      69637365 
 505      65643A20 
 505      00
 506 000d 000000   		.align	2
 507              	.LC1:
 508 0010 25303278 		.ascii	"%02x\000"
 508      00
 509 0015 000000   		.align	2
 510              	.LC2:
 511 0018 6E6F6973 		.ascii	"noiseseed: \000"
 511      65736565 
 511      643A2000 
 512              		.section	.text.indcpa_keypair,"ax",%progbits
 513              		.align	1
 514              		.global	indcpa_keypair
 515              		.syntax unified
 516              		.thumb
 517              		.thumb_func
 518              		.fpu fpv4-sp-d16
 520              	indcpa_keypair:
 521              	.LVL45:
 522              	.LFB7:
 173:Core/Src/indcpa.c **** 
 174:Core/Src/indcpa.c **** 
 175:Core/Src/indcpa.c **** /*************************************************
 176:Core/Src/indcpa.c **** * Name:        indcpa_keypair
 177:Core/Src/indcpa.c **** * 
 178:Core/Src/indcpa.c **** * Description: Generates public and private key for the CPA-secure 
 179:Core/Src/indcpa.c **** *              public-key encryption scheme underlying Kyber
 180:Core/Src/indcpa.c **** *
 181:Core/Src/indcpa.c **** * Arguments:   - unsigned char *pk: pointer to output public key
 182:Core/Src/indcpa.c **** *              - unsigned char *sk: pointer to output private key
 183:Core/Src/indcpa.c **** **************************************************/
 184:Core/Src/indcpa.c **** void indcpa_keypair(unsigned char *pk, 
 185:Core/Src/indcpa.c ****                    unsigned char *sk)
 186:Core/Src/indcpa.c **** {
 523              		.loc 1 186 1 is_stmt 1 view -0
 524              		.cfi_startproc
 525              		@ args = 0, pretend = 0, frame = 9280
 526              		@ frame_needed = 0, uses_anonymous_args = 0
 527              		.loc 1 186 1 is_stmt 0 view .LVU134
 528 0000 2DE9F041 		push	{r4, r5, r6, r7, r8, lr}
 529              	.LCFI11:
 530              		.cfi_def_cfa_offset 24
 531              		.cfi_offset 4, -24
 532              		.cfi_offset 5, -20
 533              		.cfi_offset 6, -16
 534              		.cfi_offset 7, -12
ARM GAS  C:\Users\11410\AppData\Local\Temp\ccyr0cta.s 			page 15


 535              		.cfi_offset 8, -8
 536              		.cfi_offset 14, -4
 537 0004 ADF5115D 		sub	sp, sp, #9280
 538              	.LCFI12:
 539              		.cfi_def_cfa_offset 9304
 540 0008 0546     		mov	r5, r0
 541 000a 0E46     		mov	r6, r1
 187:Core/Src/indcpa.c ****   polyvec a[KYBER_K], e, pkpv, skpv;
 542              		.loc 1 187 3 is_stmt 1 view .LVU135
 188:Core/Src/indcpa.c ****   unsigned char buf[KYBER_SYMBYTES+KYBER_SYMBYTES];
 543              		.loc 1 188 3 view .LVU136
 189:Core/Src/indcpa.c ****   unsigned char *publicseed = buf;
 544              		.loc 1 189 3 view .LVU137
 545              	.LVL46:
 190:Core/Src/indcpa.c ****   unsigned char *noiseseed = buf+KYBER_SYMBYTES;
 546              		.loc 1 190 3 view .LVU138
 191:Core/Src/indcpa.c ****   int i;
 547              		.loc 1 191 3 view .LVU139
 192:Core/Src/indcpa.c ****   unsigned char nonce=0;
 548              		.loc 1 192 3 view .LVU140
 193:Core/Src/indcpa.c ****   printf("\n");
 549              		.loc 1 193 3 view .LVU141
 550 000c 0A20     		movs	r0, #10
 551              	.LVL47:
 552              		.loc 1 193 3 is_stmt 0 view .LVU142
 553 000e FFF7FEFF 		bl	putchar
 554              	.LVL48:
 194:Core/Src/indcpa.c ****   printf("publicseed: ");        
 555              		.loc 1 194 3 is_stmt 1 view .LVU143
 556 0012 6C48     		ldr	r0, .L68
 557 0014 FFF7FEFF 		bl	printf
 558              	.LVL49:
 195:Core/Src/indcpa.c ****   for (i = 0; i < 32; i++) printf("%02x", publicseed[i]);
 559              		.loc 1 195 3 view .LVU144
 560              		.loc 1 195 10 is_stmt 0 view .LVU145
 561 0018 0024     		movs	r4, #0
 562              	.LVL50:
 563              	.L39:
 564              		.loc 1 195 15 is_stmt 1 discriminator 1 view .LVU146
 565              		.loc 1 195 3 is_stmt 0 discriminator 1 view .LVU147
 566 001a 1F2C     		cmp	r4, #31
 567 001c 06DC     		bgt	.L61
 568              		.loc 1 195 28 is_stmt 1 discriminator 3 view .LVU148
 569 001e 1DF80410 		ldrb	r1, [sp, r4]	@ zero_extendqisi2
 570 0022 6948     		ldr	r0, .L68+4
 571 0024 FFF7FEFF 		bl	printf
 572              	.LVL51:
 573              		.loc 1 195 23 discriminator 3 view .LVU149
 574              		.loc 1 195 24 is_stmt 0 discriminator 3 view .LVU150
 575 0028 0134     		adds	r4, r4, #1
 576              	.LVL52:
 577              		.loc 1 195 24 discriminator 3 view .LVU151
 578 002a F6E7     		b	.L39
 579              	.L61:
 196:Core/Src/indcpa.c ****   printf("\n");
 580              		.loc 1 196 3 is_stmt 1 view .LVU152
 581 002c 0A20     		movs	r0, #10
ARM GAS  C:\Users\11410\AppData\Local\Temp\ccyr0cta.s 			page 16


 582 002e FFF7FEFF 		bl	putchar
 583              	.LVL53:
 197:Core/Src/indcpa.c ****   printf("noiseseed: ");        
 584              		.loc 1 197 3 view .LVU153
 585 0032 6648     		ldr	r0, .L68+8
 586 0034 FFF7FEFF 		bl	printf
 587              	.LVL54:
 198:Core/Src/indcpa.c ****   for (i = 0; i < 32; i++) printf("%02x", noiseseed[i]);
 588              		.loc 1 198 3 view .LVU154
 589              		.loc 1 198 10 is_stmt 0 view .LVU155
 590 0038 0024     		movs	r4, #0
 591              	.LVL55:
 592              	.L41:
 593              		.loc 1 198 15 is_stmt 1 discriminator 1 view .LVU156
 594              		.loc 1 198 3 is_stmt 0 discriminator 1 view .LVU157
 595 003a 1F2C     		cmp	r4, #31
 596 003c 06DC     		bgt	.L62
 597              		.loc 1 198 28 is_stmt 1 discriminator 3 view .LVU158
 598 003e 08AB     		add	r3, sp, #32
 599              	.LVL56:
 600              		.loc 1 198 28 is_stmt 0 discriminator 3 view .LVU159
 601 0040 195D     		ldrb	r1, [r3, r4]	@ zero_extendqisi2
 602 0042 6148     		ldr	r0, .L68+4
 603 0044 FFF7FEFF 		bl	printf
 604              	.LVL57:
 605              		.loc 1 198 23 is_stmt 1 discriminator 3 view .LVU160
 606              		.loc 1 198 24 is_stmt 0 discriminator 3 view .LVU161
 607 0048 0134     		adds	r4, r4, #1
 608              	.LVL58:
 609              		.loc 1 198 24 discriminator 3 view .LVU162
 610 004a F6E7     		b	.L41
 611              	.L62:
 199:Core/Src/indcpa.c ****   randombytes(buf, KYBER_SYMBYTES+KYBER_SYMBYTES);
 612              		.loc 1 199 3 is_stmt 1 view .LVU163
 613 004c 4022     		movs	r2, #64
 614 004e 0023     		movs	r3, #0
 615 0050 6846     		mov	r0, sp
 616 0052 FFF7FEFF 		bl	randombytes
 617              	.LVL59:
 200:Core/Src/indcpa.c ****    printf("\n");
 618              		.loc 1 200 4 view .LVU164
 619 0056 0A20     		movs	r0, #10
 620 0058 FFF7FEFF 		bl	putchar
 621              	.LVL60:
 201:Core/Src/indcpa.c ****     printf("\n");
 622              		.loc 1 201 5 view .LVU165
 623 005c 0A20     		movs	r0, #10
 624 005e FFF7FEFF 		bl	putchar
 625              	.LVL61:
 202:Core/Src/indcpa.c ****   for (i = 0; i < 64.; i++) {
 626              		.loc 1 202 3 view .LVU166
 627              		.loc 1 202 10 is_stmt 0 view .LVU167
 628 0062 0024     		movs	r4, #0
 629              		.loc 1 202 3 view .LVU168
 630 0064 05E0     		b	.L43
 631              	.LVL62:
 632              	.L44:
ARM GAS  C:\Users\11410\AppData\Local\Temp\ccyr0cta.s 			page 17


 203:Core/Src/indcpa.c ****     if(i<32)buf[i]=0;
 204:Core/Src/indcpa.c ****     printf("%02x", buf[i]);
 633              		.loc 1 204 5 is_stmt 1 discriminator 2 view .LVU169
 634 0066 1DF80410 		ldrb	r1, [sp, r4]	@ zero_extendqisi2
 635 006a 5748     		ldr	r0, .L68+4
 636 006c FFF7FEFF 		bl	printf
 637              	.LVL63:
 202:Core/Src/indcpa.c ****   for (i = 0; i < 64.; i++) {
 638              		.loc 1 202 24 discriminator 2 view .LVU170
 202:Core/Src/indcpa.c ****   for (i = 0; i < 64.; i++) {
 639              		.loc 1 202 25 is_stmt 0 discriminator 2 view .LVU171
 640 0070 0134     		adds	r4, r4, #1
 641              	.LVL64:
 642              	.L43:
 202:Core/Src/indcpa.c ****   for (i = 0; i < 64.; i++) {
 643              		.loc 1 202 15 is_stmt 1 discriminator 1 view .LVU172
 202:Core/Src/indcpa.c ****   for (i = 0; i < 64.; i++) {
 644              		.loc 1 202 3 is_stmt 0 discriminator 1 view .LVU173
 645 0072 3F2C     		cmp	r4, #63
 646 0074 05DC     		bgt	.L63
 203:Core/Src/indcpa.c ****     if(i<32)buf[i]=0;
 647              		.loc 1 203 5 is_stmt 1 view .LVU174
 203:Core/Src/indcpa.c ****     if(i<32)buf[i]=0;
 648              		.loc 1 203 7 is_stmt 0 view .LVU175
 649 0076 1F2C     		cmp	r4, #31
 650 0078 F5DC     		bgt	.L44
 203:Core/Src/indcpa.c ****     if(i<32)buf[i]=0;
 651              		.loc 1 203 13 is_stmt 1 discriminator 1 view .LVU176
 203:Core/Src/indcpa.c ****     if(i<32)buf[i]=0;
 652              		.loc 1 203 19 is_stmt 0 discriminator 1 view .LVU177
 653 007a 0023     		movs	r3, #0
 654 007c 0DF80430 		strb	r3, [sp, r4]
 655 0080 F1E7     		b	.L44
 656              	.L63:
 205:Core/Src/indcpa.c ****   }
 206:Core/Src/indcpa.c **** 
 207:Core/Src/indcpa.c ****    printf("\n");
 657              		.loc 1 207 4 is_stmt 1 view .LVU178
 658 0082 0A20     		movs	r0, #10
 659 0084 FFF7FEFF 		bl	putchar
 660              	.LVL65:
 208:Core/Src/indcpa.c ****   printf("\n");
 661              		.loc 1 208 3 view .LVU179
 662 0088 0A20     		movs	r0, #10
 663 008a FFF7FEFF 		bl	putchar
 664              	.LVL66:
 209:Core/Src/indcpa.c ****   printf("publicseed: ");        
 665              		.loc 1 209 3 view .LVU180
 666 008e 4D48     		ldr	r0, .L68
 667 0090 FFF7FEFF 		bl	printf
 668              	.LVL67:
 210:Core/Src/indcpa.c ****   for (i = 0; i < 32; i++) printf("%02x", publicseed[i]);
 669              		.loc 1 210 3 view .LVU181
 670              		.loc 1 210 10 is_stmt 0 view .LVU182
 671 0094 0024     		movs	r4, #0
 672              	.LVL68:
 673              	.L46:
ARM GAS  C:\Users\11410\AppData\Local\Temp\ccyr0cta.s 			page 18


 674              		.loc 1 210 15 is_stmt 1 discriminator 1 view .LVU183
 675              		.loc 1 210 3 is_stmt 0 discriminator 1 view .LVU184
 676 0096 1F2C     		cmp	r4, #31
 677 0098 06DC     		bgt	.L64
 678              		.loc 1 210 28 is_stmt 1 discriminator 3 view .LVU185
 679 009a 1DF80410 		ldrb	r1, [sp, r4]	@ zero_extendqisi2
 680 009e 4A48     		ldr	r0, .L68+4
 681 00a0 FFF7FEFF 		bl	printf
 682              	.LVL69:
 683              		.loc 1 210 23 discriminator 3 view .LVU186
 684              		.loc 1 210 24 is_stmt 0 discriminator 3 view .LVU187
 685 00a4 0134     		adds	r4, r4, #1
 686              	.LVL70:
 687              		.loc 1 210 24 discriminator 3 view .LVU188
 688 00a6 F6E7     		b	.L46
 689              	.L64:
 211:Core/Src/indcpa.c ****   printf("\n");
 690              		.loc 1 211 3 is_stmt 1 view .LVU189
 691 00a8 0A20     		movs	r0, #10
 692 00aa FFF7FEFF 		bl	putchar
 693              	.LVL71:
 212:Core/Src/indcpa.c ****   printf("noiseseed: ");        
 694              		.loc 1 212 3 view .LVU190
 695 00ae 4748     		ldr	r0, .L68+8
 696 00b0 FFF7FEFF 		bl	printf
 697              	.LVL72:
 213:Core/Src/indcpa.c ****   for (i = 0; i < 32; i++) printf("%02x", noiseseed[i]);
 698              		.loc 1 213 3 view .LVU191
 699              		.loc 1 213 10 is_stmt 0 view .LVU192
 700 00b4 0024     		movs	r4, #0
 701              	.LVL73:
 702              	.L48:
 703              		.loc 1 213 15 is_stmt 1 discriminator 1 view .LVU193
 704              		.loc 1 213 3 is_stmt 0 discriminator 1 view .LVU194
 705 00b6 1F2C     		cmp	r4, #31
 706 00b8 06DC     		bgt	.L65
 707              		.loc 1 213 28 is_stmt 1 discriminator 3 view .LVU195
 708 00ba 08AB     		add	r3, sp, #32
 709              	.LVL74:
 710              		.loc 1 213 28 is_stmt 0 discriminator 3 view .LVU196
 711 00bc 195D     		ldrb	r1, [r3, r4]	@ zero_extendqisi2
 712 00be 4248     		ldr	r0, .L68+4
 713 00c0 FFF7FEFF 		bl	printf
 714              	.LVL75:
 715              		.loc 1 213 23 is_stmt 1 discriminator 3 view .LVU197
 716              		.loc 1 213 24 is_stmt 0 discriminator 3 view .LVU198
 717 00c4 0134     		adds	r4, r4, #1
 718              	.LVL76:
 719              		.loc 1 213 24 discriminator 3 view .LVU199
 720 00c6 F6E7     		b	.L48
 721              	.L65:
 214:Core/Src/indcpa.c ****   sha3_512(buf, buf, KYBER_SYMBYTES+KYBER_SYMBYTES);
 722              		.loc 1 214 3 is_stmt 1 view .LVU200
 723 00c8 4022     		movs	r2, #64
 724 00ca 0023     		movs	r3, #0
 725 00cc 6946     		mov	r1, sp
 726 00ce 6846     		mov	r0, sp
ARM GAS  C:\Users\11410\AppData\Local\Temp\ccyr0cta.s 			page 19


 727 00d0 FFF7FEFF 		bl	sha3_512
 728              	.LVL77:
 215:Core/Src/indcpa.c ****   printf("\n");
 729              		.loc 1 215 3 view .LVU201
 730 00d4 0A20     		movs	r0, #10
 731 00d6 FFF7FEFF 		bl	putchar
 732              	.LVL78:
 216:Core/Src/indcpa.c ****   printf("publicseed: ");        
 733              		.loc 1 216 3 view .LVU202
 734 00da 3A48     		ldr	r0, .L68
 735 00dc FFF7FEFF 		bl	printf
 736              	.LVL79:
 217:Core/Src/indcpa.c ****   for (i = 0; i < 32; i++) printf("%02x", publicseed[i]);
 737              		.loc 1 217 3 view .LVU203
 738              		.loc 1 217 10 is_stmt 0 view .LVU204
 739 00e0 0024     		movs	r4, #0
 740              	.LVL80:
 741              	.L50:
 742              		.loc 1 217 15 is_stmt 1 discriminator 1 view .LVU205
 743              		.loc 1 217 3 is_stmt 0 discriminator 1 view .LVU206
 744 00e2 1F2C     		cmp	r4, #31
 745 00e4 06DC     		bgt	.L66
 746              		.loc 1 217 28 is_stmt 1 discriminator 3 view .LVU207
 747 00e6 1DF80410 		ldrb	r1, [sp, r4]	@ zero_extendqisi2
 748 00ea 3748     		ldr	r0, .L68+4
 749 00ec FFF7FEFF 		bl	printf
 750              	.LVL81:
 751              		.loc 1 217 23 discriminator 3 view .LVU208
 752              		.loc 1 217 24 is_stmt 0 discriminator 3 view .LVU209
 753 00f0 0134     		adds	r4, r4, #1
 754              	.LVL82:
 755              		.loc 1 217 24 discriminator 3 view .LVU210
 756 00f2 F6E7     		b	.L50
 757              	.L66:
 218:Core/Src/indcpa.c ****   printf("\n");
 758              		.loc 1 218 3 is_stmt 1 view .LVU211
 759 00f4 0A20     		movs	r0, #10
 760 00f6 FFF7FEFF 		bl	putchar
 761              	.LVL83:
 219:Core/Src/indcpa.c ****   printf("noiseseed: ");        
 762              		.loc 1 219 3 view .LVU212
 763 00fa 3448     		ldr	r0, .L68+8
 764 00fc FFF7FEFF 		bl	printf
 765              	.LVL84:
 220:Core/Src/indcpa.c ****   for (i = 0; i < 32; i++) printf("%02x", noiseseed[i]);
 766              		.loc 1 220 3 view .LVU213
 767              		.loc 1 220 10 is_stmt 0 view .LVU214
 768 0100 0024     		movs	r4, #0
 769              	.LVL85:
 770              	.L52:
 771              		.loc 1 220 15 is_stmt 1 discriminator 1 view .LVU215
 772              		.loc 1 220 3 is_stmt 0 discriminator 1 view .LVU216
 773 0102 1F2C     		cmp	r4, #31
 774 0104 06DC     		bgt	.L67
 775              		.loc 1 220 28 is_stmt 1 discriminator 3 view .LVU217
 776 0106 08AB     		add	r3, sp, #32
 777              	.LVL86:
ARM GAS  C:\Users\11410\AppData\Local\Temp\ccyr0cta.s 			page 20


 778              		.loc 1 220 28 is_stmt 0 discriminator 3 view .LVU218
 779 0108 195D     		ldrb	r1, [r3, r4]	@ zero_extendqisi2
 780 010a 2F48     		ldr	r0, .L68+4
 781 010c FFF7FEFF 		bl	printf
 782              	.LVL87:
 783              		.loc 1 220 23 is_stmt 1 discriminator 3 view .LVU219
 784              		.loc 1 220 24 is_stmt 0 discriminator 3 view .LVU220
 785 0110 0134     		adds	r4, r4, #1
 786              	.LVL88:
 787              		.loc 1 220 24 discriminator 3 view .LVU221
 788 0112 F6E7     		b	.L52
 789              	.L67:
 221:Core/Src/indcpa.c ****   gen_a(a, publicseed);
 790              		.loc 1 221 3 is_stmt 1 view .LVU222
 791 0114 0022     		movs	r2, #0
 792 0116 6946     		mov	r1, sp
 793 0118 0DF59250 		add	r0, sp, #4672
 794 011c FFF7FEFF 		bl	gen_matrix
 795              	.LVL89:
 222:Core/Src/indcpa.c **** 
 223:Core/Src/indcpa.c ****   for(i=0;i<KYBER_K;i++)
 796              		.loc 1 223 3 view .LVU223
 192:Core/Src/indcpa.c ****   printf("\n");
 797              		.loc 1 192 17 is_stmt 0 view .LVU224
 798 0120 0024     		movs	r4, #0
 799              		.loc 1 223 8 view .LVU225
 800 0122 2746     		mov	r7, r4
 801              		.loc 1 223 3 view .LVU226
 802 0124 0CE0     		b	.L54
 803              	.LVL90:
 804              	.L55:
 224:Core/Src/indcpa.c ****     poly_getnoise(skpv.vec+i,noiseseed,nonce++);
 805              		.loc 1 224 5 is_stmt 1 discriminator 3 view .LVU227
 806 0126 04F10108 		add	r8, r4, #1
 807 012a 5FFA88F8 		uxtb	r8, r8
 808              	.LVL91:
 809              		.loc 1 224 5 is_stmt 0 discriminator 3 view .LVU228
 810 012e 2246     		mov	r2, r4
 811 0130 08A9     		add	r1, sp, #32
 812              	.LVL92:
 813              		.loc 1 224 5 discriminator 3 view .LVU229
 814 0132 10AB     		add	r3, sp, #64
 815 0134 03EB4720 		add	r0, r3, r7, lsl #9
 816 0138 FFF7FEFF 		bl	poly_getnoise
 817              	.LVL93:
 223:Core/Src/indcpa.c ****     poly_getnoise(skpv.vec+i,noiseseed,nonce++);
 818              		.loc 1 223 21 is_stmt 1 discriminator 3 view .LVU230
 223:Core/Src/indcpa.c ****     poly_getnoise(skpv.vec+i,noiseseed,nonce++);
 819              		.loc 1 223 22 is_stmt 0 discriminator 3 view .LVU231
 820 013c 0137     		adds	r7, r7, #1
 821              	.LVL94:
 822              		.loc 1 224 5 discriminator 3 view .LVU232
 823 013e 4446     		mov	r4, r8
 824              	.LVL95:
 825              	.L54:
 223:Core/Src/indcpa.c ****     poly_getnoise(skpv.vec+i,noiseseed,nonce++);
 826              		.loc 1 223 11 is_stmt 1 discriminator 1 view .LVU233
ARM GAS  C:\Users\11410\AppData\Local\Temp\ccyr0cta.s 			page 21


 223:Core/Src/indcpa.c ****     poly_getnoise(skpv.vec+i,noiseseed,nonce++);
 827              		.loc 1 223 3 is_stmt 0 discriminator 1 view .LVU234
 828 0140 022F     		cmp	r7, #2
 829 0142 F0DD     		ble	.L55
 225:Core/Src/indcpa.c ****   polyvec_ntt(&skpv);
 830              		.loc 1 225 3 is_stmt 1 view .LVU235
 831 0144 10A8     		add	r0, sp, #64
 832 0146 FFF7FEFF 		bl	polyvec_ntt
 833              	.LVL96:
 226:Core/Src/indcpa.c **** 
 227:Core/Src/indcpa.c ****   for(i=0;i<KYBER_K;i++)
 834              		.loc 1 227 3 view .LVU236
 835              		.loc 1 227 8 is_stmt 0 view .LVU237
 836 014a 0027     		movs	r7, #0
 837              		.loc 1 227 3 view .LVU238
 838 014c 0DE0     		b	.L56
 839              	.LVL97:
 840              	.L57:
 228:Core/Src/indcpa.c ****     poly_getnoise(e.vec+i,noiseseed,nonce++);
 841              		.loc 1 228 5 is_stmt 1 discriminator 3 view .LVU239
 842 014e 04F10108 		add	r8, r4, #1
 843 0152 5FFA88F8 		uxtb	r8, r8
 844              	.LVL98:
 845              		.loc 1 228 5 is_stmt 0 discriminator 3 view .LVU240
 846 0156 2246     		mov	r2, r4
 847 0158 08A9     		add	r1, sp, #32
 848              	.LVL99:
 849              		.loc 1 228 5 discriminator 3 view .LVU241
 850 015a 0DF54463 		add	r3, sp, #3136
 851 015e 03EB4720 		add	r0, r3, r7, lsl #9
 852 0162 FFF7FEFF 		bl	poly_getnoise
 853              	.LVL100:
 227:Core/Src/indcpa.c ****     poly_getnoise(e.vec+i,noiseseed,nonce++);
 854              		.loc 1 227 21 is_stmt 1 discriminator 3 view .LVU242
 227:Core/Src/indcpa.c ****     poly_getnoise(e.vec+i,noiseseed,nonce++);
 855              		.loc 1 227 22 is_stmt 0 discriminator 3 view .LVU243
 856 0166 0137     		adds	r7, r7, #1
 857              	.LVL101:
 858              		.loc 1 228 5 discriminator 3 view .LVU244
 859 0168 4446     		mov	r4, r8
 860              	.LVL102:
 861              	.L56:
 227:Core/Src/indcpa.c ****     poly_getnoise(e.vec+i,noiseseed,nonce++);
 862              		.loc 1 227 11 is_stmt 1 discriminator 1 view .LVU245
 227:Core/Src/indcpa.c ****     poly_getnoise(e.vec+i,noiseseed,nonce++);
 863              		.loc 1 227 3 is_stmt 0 discriminator 1 view .LVU246
 864 016a 022F     		cmp	r7, #2
 865 016c EFDD     		ble	.L57
 229:Core/Src/indcpa.c **** 
 230:Core/Src/indcpa.c ****   // matrix-vector multiplication
 231:Core/Src/indcpa.c ****   for(i=0;i<KYBER_K;i++)
 866              		.loc 1 231 8 view .LVU247
 867 016e 0024     		movs	r4, #0
 868              	.LVL103:
 869              		.loc 1 231 8 view .LVU248
 870 0170 0DE0     		b	.L58
 871              	.LVL104:
ARM GAS  C:\Users\11410\AppData\Local\Temp\ccyr0cta.s 			page 22


 872              	.L59:
 232:Core/Src/indcpa.c ****     polyvec_pointwise_acc(&pkpv.vec[i],&skpv,a+i);
 873              		.loc 1 232 5 is_stmt 1 discriminator 3 view .LVU249
 874              		.loc 1 232 47 is_stmt 0 discriminator 3 view .LVU250
 875 0172 04EB4402 		add	r2, r4, r4, lsl #1
 876              		.loc 1 232 5 discriminator 3 view .LVU251
 877 0176 0DF59253 		add	r3, sp, #4672
 878 017a 03EB4222 		add	r2, r3, r2, lsl #9
 879 017e 10A9     		add	r1, sp, #64
 880 0180 0DF5C863 		add	r3, sp, #1600
 881 0184 03EB4420 		add	r0, r3, r4, lsl #9
 882 0188 FFF7FEFF 		bl	polyvec_pointwise_acc
 883              	.LVL105:
 231:Core/Src/indcpa.c ****     polyvec_pointwise_acc(&pkpv.vec[i],&skpv,a+i);
 884              		.loc 1 231 21 is_stmt 1 discriminator 3 view .LVU252
 231:Core/Src/indcpa.c ****     polyvec_pointwise_acc(&pkpv.vec[i],&skpv,a+i);
 885              		.loc 1 231 22 is_stmt 0 discriminator 3 view .LVU253
 886 018c 0134     		adds	r4, r4, #1
 887              	.LVL106:
 888              	.L58:
 231:Core/Src/indcpa.c ****     polyvec_pointwise_acc(&pkpv.vec[i],&skpv,a+i);
 889              		.loc 1 231 11 is_stmt 1 discriminator 1 view .LVU254
 231:Core/Src/indcpa.c ****     polyvec_pointwise_acc(&pkpv.vec[i],&skpv,a+i);
 890              		.loc 1 231 3 is_stmt 0 discriminator 1 view .LVU255
 891 018e 022C     		cmp	r4, #2
 892 0190 EFDD     		ble	.L59
 233:Core/Src/indcpa.c ****   polyvec_invntt(&pkpv);
 893              		.loc 1 233 3 is_stmt 1 view .LVU256
 894 0192 0DF5C860 		add	r0, sp, #1600
 895 0196 FFF7FEFF 		bl	polyvec_invntt
 896              	.LVL107:
 234:Core/Src/indcpa.c ****   polyvec_add(&pkpv,&pkpv,&e);
 897              		.loc 1 234 3 view .LVU257
 898 019a 0DF54462 		add	r2, sp, #3136
 899 019e 0DF5C861 		add	r1, sp, #1600
 900 01a2 0846     		mov	r0, r1
 901 01a4 FFF7FEFF 		bl	polyvec_add
 902              	.LVL108:
 235:Core/Src/indcpa.c **** 
 236:Core/Src/indcpa.c ****   pack_sk(sk, &skpv);
 903              		.loc 1 236 3 view .LVU258
 904 01a8 10A9     		add	r1, sp, #64
 905 01aa 3046     		mov	r0, r6
 906 01ac FFF7FEFF 		bl	pack_sk
 907              	.LVL109:
 237:Core/Src/indcpa.c ****   pack_pk(pk, &pkpv, publicseed);
 908              		.loc 1 237 3 view .LVU259
 909 01b0 6A46     		mov	r2, sp
 910 01b2 0DF5C861 		add	r1, sp, #1600
 911 01b6 2846     		mov	r0, r5
 912 01b8 FFF7FEFF 		bl	pack_pk
 913              	.LVL110:
 238:Core/Src/indcpa.c **** }
 914              		.loc 1 238 1 is_stmt 0 view .LVU260
 915 01bc 0DF5115D 		add	sp, sp, #9280
 916              	.LCFI13:
 917              		.cfi_def_cfa_offset 24
ARM GAS  C:\Users\11410\AppData\Local\Temp\ccyr0cta.s 			page 23


 918              	.LVL111:
 919              		.loc 1 238 1 view .LVU261
 920              		@ sp needed
 921 01c0 BDE8F081 		pop	{r4, r5, r6, r7, r8, pc}
 922              	.LVL112:
 923              	.L69:
 924              		.loc 1 238 1 view .LVU262
 925              		.align	2
 926              	.L68:
 927 01c4 00000000 		.word	.LC0
 928 01c8 10000000 		.word	.LC1
 929 01cc 18000000 		.word	.LC2
 930              		.cfi_endproc
 931              	.LFE7:
 933              		.section	.text.indcpa_enc,"ax",%progbits
 934              		.align	1
 935              		.global	indcpa_enc
 936              		.syntax unified
 937              		.thumb
 938              		.thumb_func
 939              		.fpu fpv4-sp-d16
 941              	indcpa_enc:
 942              	.LVL113:
 943              	.LFB8:
 239:Core/Src/indcpa.c **** 
 240:Core/Src/indcpa.c **** 
 241:Core/Src/indcpa.c **** /*************************************************
 242:Core/Src/indcpa.c **** * Name:        indcpa_enc
 243:Core/Src/indcpa.c **** * 
 244:Core/Src/indcpa.c **** * Description: Encryption function of the CPA-secure 
 245:Core/Src/indcpa.c **** *              public-key encryption scheme underlying Kyber.
 246:Core/Src/indcpa.c **** *
 247:Core/Src/indcpa.c **** * Arguments:   - unsigned char *c:          pointer to output ciphertext
 248:Core/Src/indcpa.c **** *              - const unsigned char *m:    pointer to input message (of length KYBER_SYMBYTES byte
 249:Core/Src/indcpa.c **** *              - const unsigned char *pk:   pointer to input public key
 250:Core/Src/indcpa.c **** *              - const unsigned char *coin: pointer to input random coins used as seed
 251:Core/Src/indcpa.c **** *                                           to deterministically generate all randomness
 252:Core/Src/indcpa.c **** **************************************************/
 253:Core/Src/indcpa.c **** void indcpa_enc(unsigned char *c,
 254:Core/Src/indcpa.c ****                const unsigned char *m,
 255:Core/Src/indcpa.c ****                const unsigned char *pk,
 256:Core/Src/indcpa.c ****                const unsigned char *coins)
 257:Core/Src/indcpa.c **** {
 944              		.loc 1 257 1 is_stmt 1 view -0
 945              		.cfi_startproc
 946              		@ args = 0, pretend = 0, frame = 12320
 947              		@ frame_needed = 0, uses_anonymous_args = 0
 948              		.loc 1 257 1 is_stmt 0 view .LVU264
 949 0000 2DE9F041 		push	{r4, r5, r6, r7, r8, lr}
 950              	.LCFI14:
 951              		.cfi_def_cfa_offset 24
 952              		.cfi_offset 4, -24
 953              		.cfi_offset 5, -20
 954              		.cfi_offset 6, -16
 955              		.cfi_offset 7, -12
 956              		.cfi_offset 8, -8
 957              		.cfi_offset 14, -4
ARM GAS  C:\Users\11410\AppData\Local\Temp\ccyr0cta.s 			page 24


 958 0004 ADF5405D 		sub	sp, sp, #12288
 959              	.LCFI15:
 960              		.cfi_def_cfa_offset 12312
 961 0008 88B0     		sub	sp, sp, #32
 962              	.LCFI16:
 963              		.cfi_def_cfa_offset 12344
 964 000a 8046     		mov	r8, r0
 965 000c 0C46     		mov	r4, r1
 966 000e 1F46     		mov	r7, r3
 258:Core/Src/indcpa.c ****   polyvec sp, pkpv, ep, at[KYBER_K], bp;
 967              		.loc 1 258 3 is_stmt 1 view .LVU265
 259:Core/Src/indcpa.c ****   poly v, k, epp;
 968              		.loc 1 259 3 view .LVU266
 260:Core/Src/indcpa.c ****   unsigned char seed[KYBER_SYMBYTES];
 969              		.loc 1 260 3 view .LVU267
 261:Core/Src/indcpa.c ****   int i;
 970              		.loc 1 261 3 view .LVU268
 262:Core/Src/indcpa.c ****   unsigned char nonce=0;
 971              		.loc 1 262 3 view .LVU269
 972              	.LVL114:
 263:Core/Src/indcpa.c **** 
 264:Core/Src/indcpa.c **** 
 265:Core/Src/indcpa.c ****   unpack_pk(&pkpv, seed, pk);
 973              		.loc 1 265 3 view .LVU270
 974 0010 6946     		mov	r1, sp
 975              	.LVL115:
 976              		.loc 1 265 3 is_stmt 0 view .LVU271
 977 0012 0DF51050 		add	r0, sp, #9216
 978              	.LVL116:
 979              		.loc 1 265 3 view .LVU272
 980 0016 2030     		adds	r0, r0, #32
 981 0018 FFF7FEFF 		bl	unpack_pk
 982              	.LVL117:
 266:Core/Src/indcpa.c **** 
 267:Core/Src/indcpa.c ****   poly_frommsg(&k, m);
 983              		.loc 1 267 3 is_stmt 1 view .LVU273
 984 001c 2146     		mov	r1, r4
 985 001e 88A8     		add	r0, sp, #544
 986 0020 FFF7FEFF 		bl	poly_frommsg
 987              	.LVL118:
 268:Core/Src/indcpa.c **** 
 269:Core/Src/indcpa.c ****   polyvec_ntt(&pkpv);
 988              		.loc 1 269 3 view .LVU274
 989 0024 0DF51050 		add	r0, sp, #9216
 990 0028 2030     		adds	r0, r0, #32
 991 002a FFF7FEFF 		bl	polyvec_ntt
 992              	.LVL119:
 270:Core/Src/indcpa.c **** 
 271:Core/Src/indcpa.c ****   gen_at(at, seed);
 993              		.loc 1 271 3 view .LVU275
 994 002e 0122     		movs	r2, #1
 995 0030 6946     		mov	r1, sp
 996 0032 0DF54260 		add	r0, sp, #3104
 997 0036 FFF7FEFF 		bl	gen_matrix
 998              	.LVL120:
 272:Core/Src/indcpa.c **** 
 273:Core/Src/indcpa.c ****   for(i=0;i<KYBER_K;i++)
ARM GAS  C:\Users\11410\AppData\Local\Temp\ccyr0cta.s 			page 25


 999              		.loc 1 273 3 view .LVU276
 262:Core/Src/indcpa.c **** 
 1000              		.loc 1 262 17 is_stmt 0 view .LVU277
 1001 003a 0024     		movs	r4, #0
 1002              	.LVL121:
 1003              		.loc 1 273 8 view .LVU278
 1004 003c 2546     		mov	r5, r4
 1005              		.loc 1 273 3 view .LVU279
 1006 003e 0CE0     		b	.L71
 1007              	.LVL122:
 1008              	.L72:
 274:Core/Src/indcpa.c ****     poly_getnoise(sp.vec+i,coins,nonce++);
 1009              		.loc 1 274 5 is_stmt 1 discriminator 3 view .LVU280
 1010 0040 661C     		adds	r6, r4, #1
 1011 0042 F6B2     		uxtb	r6, r6
 1012              	.LVL123:
 1013              		.loc 1 274 5 is_stmt 0 discriminator 3 view .LVU281
 1014 0044 2246     		mov	r2, r4
 1015 0046 3946     		mov	r1, r7
 1016 0048 0DF52853 		add	r3, sp, #10752
 1017 004c 2033     		adds	r3, r3, #32
 1018 004e 03EB4520 		add	r0, r3, r5, lsl #9
 1019 0052 FFF7FEFF 		bl	poly_getnoise
 1020              	.LVL124:
 273:Core/Src/indcpa.c ****     poly_getnoise(sp.vec+i,coins,nonce++);
 1021              		.loc 1 273 21 is_stmt 1 discriminator 3 view .LVU282
 273:Core/Src/indcpa.c ****     poly_getnoise(sp.vec+i,coins,nonce++);
 1022              		.loc 1 273 22 is_stmt 0 discriminator 3 view .LVU283
 1023 0056 0135     		adds	r5, r5, #1
 1024              	.LVL125:
 1025              		.loc 1 274 5 discriminator 3 view .LVU284
 1026 0058 3446     		mov	r4, r6
 1027              	.LVL126:
 1028              	.L71:
 273:Core/Src/indcpa.c ****     poly_getnoise(sp.vec+i,coins,nonce++);
 1029              		.loc 1 273 11 is_stmt 1 discriminator 1 view .LVU285
 273:Core/Src/indcpa.c ****     poly_getnoise(sp.vec+i,coins,nonce++);
 1030              		.loc 1 273 3 is_stmt 0 discriminator 1 view .LVU286
 1031 005a 022D     		cmp	r5, #2
 1032 005c F0DD     		ble	.L72
 275:Core/Src/indcpa.c **** 
 276:Core/Src/indcpa.c ****   polyvec_ntt(&sp);
 1033              		.loc 1 276 3 is_stmt 1 view .LVU287
 1034 005e 0DF52850 		add	r0, sp, #10752
 1035 0062 2030     		adds	r0, r0, #32
 1036 0064 FFF7FEFF 		bl	polyvec_ntt
 1037              	.LVL127:
 277:Core/Src/indcpa.c **** 
 278:Core/Src/indcpa.c ****   for(i=0;i<KYBER_K;i++)
 1038              		.loc 1 278 3 view .LVU288
 1039              		.loc 1 278 8 is_stmt 0 view .LVU289
 1040 0068 0025     		movs	r5, #0
 1041              		.loc 1 278 3 view .LVU290
 1042 006a 0BE0     		b	.L73
 1043              	.LVL128:
 1044              	.L74:
 279:Core/Src/indcpa.c ****     poly_getnoise(ep.vec+i,coins,nonce++);
ARM GAS  C:\Users\11410\AppData\Local\Temp\ccyr0cta.s 			page 26


 1045              		.loc 1 279 5 is_stmt 1 discriminator 3 view .LVU291
 1046 006c 661C     		adds	r6, r4, #1
 1047 006e F6B2     		uxtb	r6, r6
 1048              	.LVL129:
 1049              		.loc 1 279 5 is_stmt 0 discriminator 3 view .LVU292
 1050 0070 2246     		mov	r2, r4
 1051 0072 3946     		mov	r1, r7
 1052 0074 0DF5F153 		add	r3, sp, #7712
 1053 0078 03EB4520 		add	r0, r3, r5, lsl #9
 1054 007c FFF7FEFF 		bl	poly_getnoise
 1055              	.LVL130:
 278:Core/Src/indcpa.c ****     poly_getnoise(ep.vec+i,coins,nonce++);
 1056              		.loc 1 278 21 is_stmt 1 discriminator 3 view .LVU293
 278:Core/Src/indcpa.c ****     poly_getnoise(ep.vec+i,coins,nonce++);
 1057              		.loc 1 278 22 is_stmt 0 discriminator 3 view .LVU294
 1058 0080 0135     		adds	r5, r5, #1
 1059              	.LVL131:
 1060              		.loc 1 279 5 discriminator 3 view .LVU295
 1061 0082 3446     		mov	r4, r6
 1062              	.LVL132:
 1063              	.L73:
 278:Core/Src/indcpa.c ****     poly_getnoise(ep.vec+i,coins,nonce++);
 1064              		.loc 1 278 11 is_stmt 1 discriminator 1 view .LVU296
 278:Core/Src/indcpa.c ****     poly_getnoise(ep.vec+i,coins,nonce++);
 1065              		.loc 1 278 3 is_stmt 0 discriminator 1 view .LVU297
 1066 0084 022D     		cmp	r5, #2
 1067 0086 F1DD     		ble	.L74
 280:Core/Src/indcpa.c **** 
 281:Core/Src/indcpa.c ****   // matrix-vector multiplication
 282:Core/Src/indcpa.c ****   for(i=0;i<KYBER_K;i++)
 1068              		.loc 1 282 8 view .LVU298
 1069 0088 0025     		movs	r5, #0
 1070              	.LVL133:
 1071              		.loc 1 282 8 view .LVU299
 1072 008a 0FE0     		b	.L75
 1073              	.LVL134:
 1074              	.L76:
 283:Core/Src/indcpa.c ****     polyvec_pointwise_acc(&bp.vec[i],&sp,at+i);
 1075              		.loc 1 283 5 is_stmt 1 discriminator 3 view .LVU300
 1076              		.loc 1 283 44 is_stmt 0 discriminator 3 view .LVU301
 1077 008c 05EB4502 		add	r2, r5, r5, lsl #1
 1078              		.loc 1 283 5 discriminator 3 view .LVU302
 1079 0090 0DF54263 		add	r3, sp, #3104
 1080 0094 03EB4222 		add	r2, r3, r2, lsl #9
 1081 0098 0DF52851 		add	r1, sp, #10752
 1082 009c 2031     		adds	r1, r1, #32
 1083 009e 0DF5C463 		add	r3, sp, #1568
 1084 00a2 03EB4520 		add	r0, r3, r5, lsl #9
 1085 00a6 FFF7FEFF 		bl	polyvec_pointwise_acc
 1086              	.LVL135:
 282:Core/Src/indcpa.c ****     polyvec_pointwise_acc(&bp.vec[i],&sp,at+i);
 1087              		.loc 1 282 21 is_stmt 1 discriminator 3 view .LVU303
 282:Core/Src/indcpa.c ****     polyvec_pointwise_acc(&bp.vec[i],&sp,at+i);
 1088              		.loc 1 282 22 is_stmt 0 discriminator 3 view .LVU304
 1089 00aa 0135     		adds	r5, r5, #1
 1090              	.LVL136:
 1091              	.L75:
ARM GAS  C:\Users\11410\AppData\Local\Temp\ccyr0cta.s 			page 27


 282:Core/Src/indcpa.c ****     polyvec_pointwise_acc(&bp.vec[i],&sp,at+i);
 1092              		.loc 1 282 11 is_stmt 1 discriminator 1 view .LVU305
 282:Core/Src/indcpa.c ****     polyvec_pointwise_acc(&bp.vec[i],&sp,at+i);
 1093              		.loc 1 282 3 is_stmt 0 discriminator 1 view .LVU306
 1094 00ac 022D     		cmp	r5, #2
 1095 00ae EDDD     		ble	.L76
 284:Core/Src/indcpa.c **** 
 285:Core/Src/indcpa.c ****   polyvec_invntt(&bp);
 1096              		.loc 1 285 3 is_stmt 1 view .LVU307
 1097 00b0 0DF5C460 		add	r0, sp, #1568
 1098 00b4 FFF7FEFF 		bl	polyvec_invntt
 1099              	.LVL137:
 286:Core/Src/indcpa.c ****   polyvec_add(&bp, &bp, &ep);
 1100              		.loc 1 286 3 view .LVU308
 1101 00b8 0DF5F152 		add	r2, sp, #7712
 1102 00bc 0DF5C461 		add	r1, sp, #1568
 1103 00c0 0846     		mov	r0, r1
 1104 00c2 FFF7FEFF 		bl	polyvec_add
 1105              	.LVL138:
 287:Core/Src/indcpa.c ****  
 288:Core/Src/indcpa.c ****   polyvec_pointwise_acc(&v, &pkpv, &sp);
 1106              		.loc 1 288 3 view .LVU309
 1107 00c6 0DF52852 		add	r2, sp, #10752
 1108 00ca 2032     		adds	r2, r2, #32
 1109 00cc 0DF51051 		add	r1, sp, #9216
 1110 00d0 2031     		adds	r1, r1, #32
 1111 00d2 0DF58460 		add	r0, sp, #1056
 1112 00d6 FFF7FEFF 		bl	polyvec_pointwise_acc
 1113              	.LVL139:
 289:Core/Src/indcpa.c ****   poly_invntt(&v);
 1114              		.loc 1 289 3 view .LVU310
 1115 00da 0DF58460 		add	r0, sp, #1056
 1116 00de FFF7FEFF 		bl	poly_invntt
 1117              	.LVL140:
 290:Core/Src/indcpa.c **** 
 291:Core/Src/indcpa.c ****   poly_getnoise(&epp,coins,nonce++);
 1118              		.loc 1 291 3 view .LVU311
 1119              		.loc 1 291 3 is_stmt 0 view .LVU312
 1120 00e2 2246     		mov	r2, r4
 1121 00e4 3946     		mov	r1, r7
 1122 00e6 08A8     		add	r0, sp, #32
 1123 00e8 FFF7FEFF 		bl	poly_getnoise
 1124              	.LVL141:
 292:Core/Src/indcpa.c **** 
 293:Core/Src/indcpa.c ****   poly_add(&v, &v, &epp);
 1125              		.loc 1 293 3 is_stmt 1 view .LVU313
 1126 00ec 08AA     		add	r2, sp, #32
 1127 00ee 0DF58461 		add	r1, sp, #1056
 1128 00f2 0846     		mov	r0, r1
 1129 00f4 FFF7FEFF 		bl	poly_add
 1130              	.LVL142:
 294:Core/Src/indcpa.c ****   poly_add(&v, &v, &k);
 1131              		.loc 1 294 3 view .LVU314
 1132 00f8 88AA     		add	r2, sp, #544
 1133 00fa 0DF58461 		add	r1, sp, #1056
 1134 00fe 0846     		mov	r0, r1
 1135 0100 FFF7FEFF 		bl	poly_add
ARM GAS  C:\Users\11410\AppData\Local\Temp\ccyr0cta.s 			page 28


 1136              	.LVL143:
 295:Core/Src/indcpa.c **** 
 296:Core/Src/indcpa.c ****   pack_ciphertext(c, &bp, &v);
 1137              		.loc 1 296 3 view .LVU315
 1138 0104 0DF58462 		add	r2, sp, #1056
 1139 0108 0DF5C461 		add	r1, sp, #1568
 1140 010c 4046     		mov	r0, r8
 1141 010e FFF7FEFF 		bl	pack_ciphertext
 1142              	.LVL144:
 297:Core/Src/indcpa.c **** }
 1143              		.loc 1 297 1 is_stmt 0 view .LVU316
 1144 0112 0DF5405D 		add	sp, sp, #12288
 1145 0116 08B0     		add	sp, sp, #32
 1146              	.LCFI17:
 1147              		.cfi_def_cfa_offset 24
 1148              		@ sp needed
 1149 0118 BDE8F081 		pop	{r4, r5, r6, r7, r8, pc}
 1150              		.loc 1 297 1 view .LVU317
 1151              		.cfi_endproc
 1152              	.LFE8:
 1154              		.section	.text.indcpa_dec,"ax",%progbits
 1155              		.align	1
 1156              		.global	indcpa_dec
 1157              		.syntax unified
 1158              		.thumb
 1159              		.thumb_func
 1160              		.fpu fpv4-sp-d16
 1162              	indcpa_dec:
 1163              	.LVL145:
 1164              	.LFB9:
 298:Core/Src/indcpa.c **** 
 299:Core/Src/indcpa.c **** /*************************************************
 300:Core/Src/indcpa.c **** * Name:        indcpa_dec
 301:Core/Src/indcpa.c **** * 
 302:Core/Src/indcpa.c **** * Description: Decryption function of the CPA-secure 
 303:Core/Src/indcpa.c **** *              public-key encryption scheme underlying Kyber.
 304:Core/Src/indcpa.c **** *
 305:Core/Src/indcpa.c **** * Arguments:   - unsigned char *m:        pointer to output decrypted message
 306:Core/Src/indcpa.c **** *              - const unsigned char *c:  pointer to input ciphertext
 307:Core/Src/indcpa.c **** *              - const unsigned char *sk: pointer to input secret key
 308:Core/Src/indcpa.c **** **************************************************/
 309:Core/Src/indcpa.c **** void indcpa_dec(unsigned char *m,
 310:Core/Src/indcpa.c ****                const unsigned char *c,
 311:Core/Src/indcpa.c ****                const unsigned char *sk)
 312:Core/Src/indcpa.c **** {
 1165              		.loc 1 312 1 is_stmt 1 view -0
 1166              		.cfi_startproc
 1167              		@ args = 0, pretend = 0, frame = 4096
 1168              		@ frame_needed = 0, uses_anonymous_args = 0
 1169              		.loc 1 312 1 is_stmt 0 view .LVU319
 1170 0000 30B5     		push	{r4, r5, lr}
 1171              	.LCFI18:
 1172              		.cfi_def_cfa_offset 12
 1173              		.cfi_offset 4, -12
 1174              		.cfi_offset 5, -8
 1175              		.cfi_offset 14, -4
 1176 0002 ADF5805D 		sub	sp, sp, #4096
ARM GAS  C:\Users\11410\AppData\Local\Temp\ccyr0cta.s 			page 29


 1177              	.LCFI19:
 1178              		.cfi_def_cfa_offset 4108
 1179 0006 81B0     		sub	sp, sp, #4
 1180              	.LCFI20:
 1181              		.cfi_def_cfa_offset 4112
 1182 0008 0446     		mov	r4, r0
 1183 000a 1546     		mov	r5, r2
 313:Core/Src/indcpa.c ****   polyvec bp, skpv;
 1184              		.loc 1 313 3 is_stmt 1 view .LVU320
 314:Core/Src/indcpa.c ****   poly v, mp;
 1185              		.loc 1 314 3 view .LVU321
 315:Core/Src/indcpa.c **** 
 316:Core/Src/indcpa.c ****   unpack_ciphertext(&bp, &v, c);
 1186              		.loc 1 316 3 view .LVU322
 1187 000c 0A46     		mov	r2, r1
 1188              	.LVL146:
 1189              		.loc 1 316 3 is_stmt 0 view .LVU323
 1190 000e 80A9     		add	r1, sp, #512
 1191              	.LVL147:
 1192              		.loc 1 316 3 view .LVU324
 1193 0010 0DF52060 		add	r0, sp, #2560
 1194              	.LVL148:
 1195              		.loc 1 316 3 view .LVU325
 1196 0014 FFF7FEFF 		bl	unpack_ciphertext
 1197              	.LVL149:
 317:Core/Src/indcpa.c ****   unpack_sk(&skpv, sk);
 1198              		.loc 1 317 3 is_stmt 1 view .LVU326
 1199 0018 2946     		mov	r1, r5
 1200 001a 0DF58060 		add	r0, sp, #1024
 1201 001e FFF7FEFF 		bl	unpack_sk
 1202              	.LVL150:
 318:Core/Src/indcpa.c **** 
 319:Core/Src/indcpa.c ****   polyvec_ntt(&bp);
 1203              		.loc 1 319 3 view .LVU327
 1204 0022 0DF52060 		add	r0, sp, #2560
 1205 0026 FFF7FEFF 		bl	polyvec_ntt
 1206              	.LVL151:
 320:Core/Src/indcpa.c **** 
 321:Core/Src/indcpa.c ****   polyvec_pointwise_acc(&mp,&skpv,&bp);
 1207              		.loc 1 321 3 view .LVU328
 1208 002a 0DF52062 		add	r2, sp, #2560
 1209 002e 0DF58061 		add	r1, sp, #1024
 1210 0032 6846     		mov	r0, sp
 1211 0034 FFF7FEFF 		bl	polyvec_pointwise_acc
 1212              	.LVL152:
 322:Core/Src/indcpa.c ****   poly_invntt(&mp);
 1213              		.loc 1 322 3 view .LVU329
 1214 0038 6846     		mov	r0, sp
 1215 003a FFF7FEFF 		bl	poly_invntt
 1216              	.LVL153:
 323:Core/Src/indcpa.c **** 
 324:Core/Src/indcpa.c ****   poly_sub(&mp, &mp, &v);
 1217              		.loc 1 324 3 view .LVU330
 1218 003e 80AA     		add	r2, sp, #512
 1219 0040 6946     		mov	r1, sp
 1220 0042 6846     		mov	r0, sp
 1221 0044 FFF7FEFF 		bl	poly_sub
ARM GAS  C:\Users\11410\AppData\Local\Temp\ccyr0cta.s 			page 30


 1222              	.LVL154:
 325:Core/Src/indcpa.c **** 
 326:Core/Src/indcpa.c ****   poly_tomsg(m, &mp);
 1223              		.loc 1 326 3 view .LVU331
 1224 0048 6946     		mov	r1, sp
 1225 004a 2046     		mov	r0, r4
 1226 004c FFF7FEFF 		bl	poly_tomsg
 1227              	.LVL155:
 327:Core/Src/indcpa.c **** }
 1228              		.loc 1 327 1 is_stmt 0 view .LVU332
 1229 0050 0DF5805D 		add	sp, sp, #4096
 1230 0054 01B0     		add	sp, sp, #4
 1231              	.LCFI21:
 1232              		.cfi_def_cfa_offset 12
 1233              		@ sp needed
 1234 0056 30BD     		pop	{r4, r5, pc}
 1235              		.loc 1 327 1 view .LVU333
 1236              		.cfi_endproc
 1237              	.LFE9:
 1239              		.text
 1240              	.Letext0:
 1241              		.file 2 "c:\\program files (x86)\\gnu tools arm embedded\\9 2019-q4-major\\arm-none-eabi\\include\
 1242              		.file 3 "c:\\program files (x86)\\gnu tools arm embedded\\9 2019-q4-major\\arm-none-eabi\\include\
 1243              		.file 4 "c:\\program files (x86)\\gnu tools arm embedded\\9 2019-q4-major\\arm-none-eabi\\include\
 1244              		.file 5 "c:\\program files (x86)\\gnu tools arm embedded\\9 2019-q4-major\\lib\\gcc\\arm-none-eabi
 1245              		.file 6 "c:\\program files (x86)\\gnu tools arm embedded\\9 2019-q4-major\\arm-none-eabi\\include\
 1246              		.file 7 "c:\\program files (x86)\\gnu tools arm embedded\\9 2019-q4-major\\arm-none-eabi\\include\
 1247              		.file 8 "Core/Inc/poly.h"
 1248              		.file 9 "Core/Inc/polyvec.h"
 1249              		.file 10 "<built-in>"
 1250              		.file 11 "Core/Inc/randombytes.h"
 1251              		.file 12 "Core/Inc/fips202.h"
ARM GAS  C:\Users\11410\AppData\Local\Temp\ccyr0cta.s 			page 31


DEFINED SYMBOLS
                            *ABS*:00000000 indcpa.c
C:\Users\11410\AppData\Local\Temp\ccyr0cta.s:18     .text.pack_sk:00000000 $t
C:\Users\11410\AppData\Local\Temp\ccyr0cta.s:25     .text.pack_sk:00000000 pack_sk
C:\Users\11410\AppData\Local\Temp\ccyr0cta.s:48     .text.pack_pk:00000000 $t
C:\Users\11410\AppData\Local\Temp\ccyr0cta.s:54     .text.pack_pk:00000000 pack_pk
C:\Users\11410\AppData\Local\Temp\ccyr0cta.s:105    .text.unpack_pk:00000000 $t
C:\Users\11410\AppData\Local\Temp\ccyr0cta.s:111    .text.unpack_pk:00000000 unpack_pk
C:\Users\11410\AppData\Local\Temp\ccyr0cta.s:164    .text.pack_ciphertext:00000000 $t
C:\Users\11410\AppData\Local\Temp\ccyr0cta.s:170    .text.pack_ciphertext:00000000 pack_ciphertext
C:\Users\11410\AppData\Local\Temp\ccyr0cta.s:202    .text.unpack_ciphertext:00000000 $t
C:\Users\11410\AppData\Local\Temp\ccyr0cta.s:208    .text.unpack_ciphertext:00000000 unpack_ciphertext
C:\Users\11410\AppData\Local\Temp\ccyr0cta.s:243    .text.unpack_sk:00000000 $t
C:\Users\11410\AppData\Local\Temp\ccyr0cta.s:249    .text.unpack_sk:00000000 unpack_sk
C:\Users\11410\AppData\Local\Temp\ccyr0cta.s:271    .text.gen_matrix:00000000 $t
C:\Users\11410\AppData\Local\Temp\ccyr0cta.s:278    .text.gen_matrix:00000000 gen_matrix
C:\Users\11410\AppData\Local\Temp\ccyr0cta.s:503    .rodata.indcpa_keypair.str1.4:00000000 $d
C:\Users\11410\AppData\Local\Temp\ccyr0cta.s:513    .text.indcpa_keypair:00000000 $t
C:\Users\11410\AppData\Local\Temp\ccyr0cta.s:520    .text.indcpa_keypair:00000000 indcpa_keypair
C:\Users\11410\AppData\Local\Temp\ccyr0cta.s:927    .text.indcpa_keypair:000001c4 $d
C:\Users\11410\AppData\Local\Temp\ccyr0cta.s:934    .text.indcpa_enc:00000000 $t
C:\Users\11410\AppData\Local\Temp\ccyr0cta.s:941    .text.indcpa_enc:00000000 indcpa_enc
C:\Users\11410\AppData\Local\Temp\ccyr0cta.s:1155   .text.indcpa_dec:00000000 $t
C:\Users\11410\AppData\Local\Temp\ccyr0cta.s:1162   .text.indcpa_dec:00000000 indcpa_dec

UNDEFINED SYMBOLS
polyvec_tobytes
polyvec_compress
polyvec_decompress
poly_compress
poly_decompress
polyvec_frombytes
shake128_squeezeblocks
shake128_absorb
putchar
printf
randombytes
sha3_512
poly_getnoise
polyvec_ntt
polyvec_pointwise_acc
polyvec_invntt
polyvec_add
poly_frommsg
poly_invntt
poly_add
poly_sub
poly_tomsg
