ARM GAS  C:\Users\11410\AppData\Local\Temp\ccbR4jD6.s 			page 1


   1              		.cpu cortex-m4
   2              		.eabi_attribute 27, 1
   3              		.eabi_attribute 28, 1
   4              		.eabi_attribute 20, 1
   5              		.eabi_attribute 21, 1
   6              		.eabi_attribute 23, 3
   7              		.eabi_attribute 24, 1
   8              		.eabi_attribute 25, 1
   9              		.eabi_attribute 26, 1
  10              		.eabi_attribute 30, 1
  11              		.eabi_attribute 34, 1
  12              		.eabi_attribute 18, 4
  13              		.file	"indcpa.c"
  14              		.text
  15              	.Ltext0:
  16              		.cfi_sections	.debug_frame
  17              		.section	.text.pack_sk,"ax",%progbits
  18              		.align	1
  19              		.arch armv7e-m
  20              		.syntax unified
  21              		.thumb
  22              		.thumb_func
  23              		.fpu fpv4-sp-d16
  25              	pack_sk:
  26              	.LVL0:
  27              	.LFB4:
  28              		.file 1 "Core/Src/indcpa.c"
   1:Core/Src/indcpa.c **** #include <string.h>
   2:Core/Src/indcpa.c **** #include "indcpa.h"
   3:Core/Src/indcpa.c **** #include "poly.h"
   4:Core/Src/indcpa.c **** #include "polyvec.h"
   5:Core/Src/indcpa.c **** #include "randombytes.h"
   6:Core/Src/indcpa.c **** #include "fips202.h"
   7:Core/Src/indcpa.c **** #include "ntt.h"
   8:Core/Src/indcpa.c **** 
   9:Core/Src/indcpa.c **** /*************************************************
  10:Core/Src/indcpa.c **** * Name:        pack_pk
  11:Core/Src/indcpa.c **** * 
  12:Core/Src/indcpa.c **** * Description: Serialize the public key as concatenation of the
  13:Core/Src/indcpa.c **** *              compressed and serialized vector of polynomials pk 
  14:Core/Src/indcpa.c **** *              and the public seed used to generate the matrix A.
  15:Core/Src/indcpa.c **** *
  16:Core/Src/indcpa.c **** * Arguments:   unsigned char *r:          pointer to the output serialized public key
  17:Core/Src/indcpa.c **** *              const poly *pk:            pointer to the input public-key polynomial
  18:Core/Src/indcpa.c **** *              const unsigned char *seed: pointer to the input public seed
  19:Core/Src/indcpa.c **** **************************************************/
  20:Core/Src/indcpa.c **** static void pack_pk(unsigned char *r, const polyvec *pk, const unsigned char *seed)
  21:Core/Src/indcpa.c **** {
  22:Core/Src/indcpa.c ****   int i;
  23:Core/Src/indcpa.c ****   polyvec_compress(r, pk);
  24:Core/Src/indcpa.c ****   for(i=0;i<KYBER_SYMBYTES;i++)
  25:Core/Src/indcpa.c ****     r[i+KYBER_POLYVECCOMPRESSEDBYTES] = seed[i];
  26:Core/Src/indcpa.c **** }
  27:Core/Src/indcpa.c **** 
  28:Core/Src/indcpa.c **** /*************************************************
  29:Core/Src/indcpa.c **** * Name:        unpack_pk
  30:Core/Src/indcpa.c **** * 
ARM GAS  C:\Users\11410\AppData\Local\Temp\ccbR4jD6.s 			page 2


  31:Core/Src/indcpa.c **** * Description: De-serialize and decompress public key from a byte array;
  32:Core/Src/indcpa.c **** *              approximate inverse of pack_pk
  33:Core/Src/indcpa.c **** *
  34:Core/Src/indcpa.c **** * Arguments:   - polyvec *pk:                   pointer to output public-key vector of polynomials
  35:Core/Src/indcpa.c **** *              - unsigned char *seed:           pointer to output seed to generate matrix A
  36:Core/Src/indcpa.c **** *              - const unsigned char *packedpk: pointer to input serialized public key
  37:Core/Src/indcpa.c **** **************************************************/
  38:Core/Src/indcpa.c **** static void unpack_pk(polyvec *pk, unsigned char *seed, const unsigned char *packedpk)
  39:Core/Src/indcpa.c **** {
  40:Core/Src/indcpa.c ****   int i;
  41:Core/Src/indcpa.c ****   polyvec_decompress(pk, packedpk);
  42:Core/Src/indcpa.c **** 
  43:Core/Src/indcpa.c ****   for(i=0;i<KYBER_SYMBYTES;i++)
  44:Core/Src/indcpa.c ****     seed[i] = packedpk[i+KYBER_POLYVECCOMPRESSEDBYTES];
  45:Core/Src/indcpa.c **** }
  46:Core/Src/indcpa.c **** 
  47:Core/Src/indcpa.c **** /*************************************************
  48:Core/Src/indcpa.c **** * Name:        pack_ciphertext
  49:Core/Src/indcpa.c **** * 
  50:Core/Src/indcpa.c **** * Description: Serialize the ciphertext as concatenation of the
  51:Core/Src/indcpa.c **** *              compressed and serialized vector of polynomials b
  52:Core/Src/indcpa.c **** *              and the compressed and serialized polynomial v
  53:Core/Src/indcpa.c **** *
  54:Core/Src/indcpa.c **** * Arguments:   unsigned char *r:          pointer to the output serialized ciphertext
  55:Core/Src/indcpa.c **** *              const poly *pk:            pointer to the input vector of polynomials b
  56:Core/Src/indcpa.c **** *              const unsigned char *seed: pointer to the input polynomial v
  57:Core/Src/indcpa.c **** **************************************************/
  58:Core/Src/indcpa.c **** static void pack_ciphertext(unsigned char *r, const polyvec *b, const poly *v)
  59:Core/Src/indcpa.c **** {
  60:Core/Src/indcpa.c ****   polyvec_compress(r, b);
  61:Core/Src/indcpa.c ****   poly_compress(r+KYBER_POLYVECCOMPRESSEDBYTES, v);
  62:Core/Src/indcpa.c **** }
  63:Core/Src/indcpa.c **** 
  64:Core/Src/indcpa.c **** /*************************************************
  65:Core/Src/indcpa.c **** * Name:        unpack_ciphertext
  66:Core/Src/indcpa.c **** * 
  67:Core/Src/indcpa.c **** * Description: De-serialize and decompress ciphertext from a byte array;
  68:Core/Src/indcpa.c **** *              approximate inverse of pack_ciphertext
  69:Core/Src/indcpa.c **** *
  70:Core/Src/indcpa.c **** * Arguments:   - polyvec *b:             pointer to the output vector of polynomials b
  71:Core/Src/indcpa.c **** *              - poly *v:                pointer to the output polynomial v
  72:Core/Src/indcpa.c **** *              - const unsigned char *c: pointer to the input serialized ciphertext
  73:Core/Src/indcpa.c **** **************************************************/
  74:Core/Src/indcpa.c **** static void unpack_ciphertext(polyvec *b, poly *v, const unsigned char *c)
  75:Core/Src/indcpa.c **** {
  76:Core/Src/indcpa.c ****   polyvec_decompress(b, c);
  77:Core/Src/indcpa.c ****   poly_decompress(v, c+KYBER_POLYVECCOMPRESSEDBYTES);
  78:Core/Src/indcpa.c **** }
  79:Core/Src/indcpa.c **** 
  80:Core/Src/indcpa.c **** /*************************************************
  81:Core/Src/indcpa.c **** * Name:        pack_sk
  82:Core/Src/indcpa.c **** * 
  83:Core/Src/indcpa.c **** * Description: Serialize the secret key
  84:Core/Src/indcpa.c **** *
  85:Core/Src/indcpa.c **** * Arguments:   - unsigned char *r:  pointer to output serialized secret key
  86:Core/Src/indcpa.c **** *              - const polyvec *sk: pointer to input vector of polynomials (secret key)
  87:Core/Src/indcpa.c **** **************************************************/
ARM GAS  C:\Users\11410\AppData\Local\Temp\ccbR4jD6.s 			page 3


  88:Core/Src/indcpa.c **** static void pack_sk(unsigned char *r, const polyvec *sk)
  89:Core/Src/indcpa.c **** {
  29              		.loc 1 89 1 view -0
  30              		.cfi_startproc
  31              		@ args = 0, pretend = 0, frame = 0
  32              		@ frame_needed = 0, uses_anonymous_args = 0
  33              		.loc 1 89 1 is_stmt 0 view .LVU1
  34 0000 08B5     		push	{r3, lr}
  35              	.LCFI0:
  36              		.cfi_def_cfa_offset 8
  37              		.cfi_offset 3, -8
  38              		.cfi_offset 14, -4
  90:Core/Src/indcpa.c ****   polyvec_tobytes(r, sk);
  39              		.loc 1 90 3 is_stmt 1 view .LVU2
  40 0002 FFF7FEFF 		bl	polyvec_tobytes
  41              	.LVL1:
  91:Core/Src/indcpa.c **** }
  42              		.loc 1 91 1 is_stmt 0 view .LVU3
  43 0006 08BD     		pop	{r3, pc}
  44              		.cfi_endproc
  45              	.LFE4:
  47              		.section	.text.pack_pk,"ax",%progbits
  48              		.align	1
  49              		.syntax unified
  50              		.thumb
  51              		.thumb_func
  52              		.fpu fpv4-sp-d16
  54              	pack_pk:
  55              	.LVL2:
  56              	.LFB0:
  21:Core/Src/indcpa.c ****   int i;
  57              		.loc 1 21 1 is_stmt 1 view -0
  58              		.cfi_startproc
  59              		@ args = 0, pretend = 0, frame = 0
  60              		@ frame_needed = 0, uses_anonymous_args = 0
  21:Core/Src/indcpa.c ****   int i;
  61              		.loc 1 21 1 is_stmt 0 view .LVU5
  62 0000 70B5     		push	{r4, r5, r6, lr}
  63              	.LCFI1:
  64              		.cfi_def_cfa_offset 16
  65              		.cfi_offset 4, -16
  66              		.cfi_offset 5, -12
  67              		.cfi_offset 6, -8
  68              		.cfi_offset 14, -4
  69 0002 0646     		mov	r6, r0
  70 0004 1546     		mov	r5, r2
  22:Core/Src/indcpa.c ****   polyvec_compress(r, pk);
  71              		.loc 1 22 3 is_stmt 1 view .LVU6
  23:Core/Src/indcpa.c ****   for(i=0;i<KYBER_SYMBYTES;i++)
  72              		.loc 1 23 3 view .LVU7
  73 0006 FFF7FEFF 		bl	polyvec_compress
  74              	.LVL3:
  24:Core/Src/indcpa.c ****     r[i+KYBER_POLYVECCOMPRESSEDBYTES] = seed[i];
  75              		.loc 1 24 3 view .LVU8
  24:Core/Src/indcpa.c ****     r[i+KYBER_POLYVECCOMPRESSEDBYTES] = seed[i];
  76              		.loc 1 24 8 is_stmt 0 view .LVU9
  77 000a 0023     		movs	r3, #0
ARM GAS  C:\Users\11410\AppData\Local\Temp\ccbR4jD6.s 			page 4


  78              	.LVL4:
  79              	.L4:
  24:Core/Src/indcpa.c ****     r[i+KYBER_POLYVECCOMPRESSEDBYTES] = seed[i];
  80              		.loc 1 24 11 is_stmt 1 discriminator 1 view .LVU10
  24:Core/Src/indcpa.c ****     r[i+KYBER_POLYVECCOMPRESSEDBYTES] = seed[i];
  81              		.loc 1 24 3 is_stmt 0 discriminator 1 view .LVU11
  82 000c 1F2B     		cmp	r3, #31
  83 000e 05DC     		bgt	.L7
  25:Core/Src/indcpa.c **** }
  84              		.loc 1 25 5 is_stmt 1 discriminator 3 view .LVU12
  25:Core/Src/indcpa.c **** }
  85              		.loc 1 25 6 is_stmt 0 discriminator 3 view .LVU13
  86 0010 03F58461 		add	r1, r3, #1056
  25:Core/Src/indcpa.c **** }
  87              		.loc 1 25 45 discriminator 3 view .LVU14
  88 0014 EC5C     		ldrb	r4, [r5, r3]	@ zero_extendqisi2
  25:Core/Src/indcpa.c **** }
  89              		.loc 1 25 39 discriminator 3 view .LVU15
  90 0016 7454     		strb	r4, [r6, r1]
  24:Core/Src/indcpa.c ****     r[i+KYBER_POLYVECCOMPRESSEDBYTES] = seed[i];
  91              		.loc 1 24 28 is_stmt 1 discriminator 3 view .LVU16
  24:Core/Src/indcpa.c ****     r[i+KYBER_POLYVECCOMPRESSEDBYTES] = seed[i];
  92              		.loc 1 24 29 is_stmt 0 discriminator 3 view .LVU17
  93 0018 0133     		adds	r3, r3, #1
  94              	.LVL5:
  24:Core/Src/indcpa.c ****     r[i+KYBER_POLYVECCOMPRESSEDBYTES] = seed[i];
  95              		.loc 1 24 29 discriminator 3 view .LVU18
  96 001a F7E7     		b	.L4
  97              	.L7:
  26:Core/Src/indcpa.c **** 
  98              		.loc 1 26 1 view .LVU19
  99 001c 70BD     		pop	{r4, r5, r6, pc}
  26:Core/Src/indcpa.c **** 
 100              		.loc 1 26 1 view .LVU20
 101              		.cfi_endproc
 102              	.LFE0:
 104              		.section	.text.unpack_pk,"ax",%progbits
 105              		.align	1
 106              		.syntax unified
 107              		.thumb
 108              		.thumb_func
 109              		.fpu fpv4-sp-d16
 111              	unpack_pk:
 112              	.LVL6:
 113              	.LFB1:
  39:Core/Src/indcpa.c ****   int i;
 114              		.loc 1 39 1 is_stmt 1 view -0
 115              		.cfi_startproc
 116              		@ args = 0, pretend = 0, frame = 0
 117              		@ frame_needed = 0, uses_anonymous_args = 0
  39:Core/Src/indcpa.c ****   int i;
 118              		.loc 1 39 1 is_stmt 0 view .LVU22
 119 0000 38B5     		push	{r3, r4, r5, lr}
 120              	.LCFI2:
 121              		.cfi_def_cfa_offset 16
 122              		.cfi_offset 3, -16
 123              		.cfi_offset 4, -12
ARM GAS  C:\Users\11410\AppData\Local\Temp\ccbR4jD6.s 			page 5


 124              		.cfi_offset 5, -8
 125              		.cfi_offset 14, -4
 126 0002 0D46     		mov	r5, r1
 127 0004 1446     		mov	r4, r2
  40:Core/Src/indcpa.c ****   polyvec_decompress(pk, packedpk);
 128              		.loc 1 40 3 is_stmt 1 view .LVU23
  41:Core/Src/indcpa.c **** 
 129              		.loc 1 41 3 view .LVU24
 130 0006 1146     		mov	r1, r2
 131              	.LVL7:
  41:Core/Src/indcpa.c **** 
 132              		.loc 1 41 3 is_stmt 0 view .LVU25
 133 0008 FFF7FEFF 		bl	polyvec_decompress
 134              	.LVL8:
  43:Core/Src/indcpa.c ****     seed[i] = packedpk[i+KYBER_POLYVECCOMPRESSEDBYTES];
 135              		.loc 1 43 3 is_stmt 1 view .LVU26
  43:Core/Src/indcpa.c ****     seed[i] = packedpk[i+KYBER_POLYVECCOMPRESSEDBYTES];
 136              		.loc 1 43 8 is_stmt 0 view .LVU27
 137 000c 0023     		movs	r3, #0
 138              	.LVL9:
 139              	.L9:
  43:Core/Src/indcpa.c ****     seed[i] = packedpk[i+KYBER_POLYVECCOMPRESSEDBYTES];
 140              		.loc 1 43 11 is_stmt 1 discriminator 1 view .LVU28
  43:Core/Src/indcpa.c ****     seed[i] = packedpk[i+KYBER_POLYVECCOMPRESSEDBYTES];
 141              		.loc 1 43 3 is_stmt 0 discriminator 1 view .LVU29
 142 000e 1F2B     		cmp	r3, #31
 143 0010 05DC     		bgt	.L12
  44:Core/Src/indcpa.c **** }
 144              		.loc 1 44 5 is_stmt 1 discriminator 3 view .LVU30
  44:Core/Src/indcpa.c **** }
 145              		.loc 1 44 23 is_stmt 0 discriminator 3 view .LVU31
 146 0012 E018     		adds	r0, r4, r3
 147 0014 90F82004 		ldrb	r0, [r0, #1056]	@ zero_extendqisi2
  44:Core/Src/indcpa.c **** }
 148              		.loc 1 44 13 discriminator 3 view .LVU32
 149 0018 E854     		strb	r0, [r5, r3]
  43:Core/Src/indcpa.c ****     seed[i] = packedpk[i+KYBER_POLYVECCOMPRESSEDBYTES];
 150              		.loc 1 43 28 is_stmt 1 discriminator 3 view .LVU33
  43:Core/Src/indcpa.c ****     seed[i] = packedpk[i+KYBER_POLYVECCOMPRESSEDBYTES];
 151              		.loc 1 43 29 is_stmt 0 discriminator 3 view .LVU34
 152 001a 0133     		adds	r3, r3, #1
 153              	.LVL10:
  43:Core/Src/indcpa.c ****     seed[i] = packedpk[i+KYBER_POLYVECCOMPRESSEDBYTES];
 154              		.loc 1 43 29 discriminator 3 view .LVU35
 155 001c F7E7     		b	.L9
 156              	.L12:
  45:Core/Src/indcpa.c **** 
 157              		.loc 1 45 1 view .LVU36
 158 001e 38BD     		pop	{r3, r4, r5, pc}
  45:Core/Src/indcpa.c **** 
 159              		.loc 1 45 1 view .LVU37
 160              		.cfi_endproc
 161              	.LFE1:
 163              		.section	.text.pack_ciphertext,"ax",%progbits
 164              		.align	1
 165              		.syntax unified
 166              		.thumb
ARM GAS  C:\Users\11410\AppData\Local\Temp\ccbR4jD6.s 			page 6


 167              		.thumb_func
 168              		.fpu fpv4-sp-d16
 170              	pack_ciphertext:
 171              	.LVL11:
 172              	.LFB2:
  59:Core/Src/indcpa.c ****   polyvec_compress(r, b);
 173              		.loc 1 59 1 is_stmt 1 view -0
 174              		.cfi_startproc
 175              		@ args = 0, pretend = 0, frame = 0
 176              		@ frame_needed = 0, uses_anonymous_args = 0
  59:Core/Src/indcpa.c ****   polyvec_compress(r, b);
 177              		.loc 1 59 1 is_stmt 0 view .LVU39
 178 0000 38B5     		push	{r3, r4, r5, lr}
 179              	.LCFI3:
 180              		.cfi_def_cfa_offset 16
 181              		.cfi_offset 3, -16
 182              		.cfi_offset 4, -12
 183              		.cfi_offset 5, -8
 184              		.cfi_offset 14, -4
 185 0002 0446     		mov	r4, r0
 186 0004 1546     		mov	r5, r2
  60:Core/Src/indcpa.c ****   poly_compress(r+KYBER_POLYVECCOMPRESSEDBYTES, v);
 187              		.loc 1 60 3 is_stmt 1 view .LVU40
 188 0006 FFF7FEFF 		bl	polyvec_compress
 189              	.LVL12:
  61:Core/Src/indcpa.c **** }
 190              		.loc 1 61 3 view .LVU41
 191 000a 2946     		mov	r1, r5
 192 000c 04F58460 		add	r0, r4, #1056
 193 0010 FFF7FEFF 		bl	poly_compress
 194              	.LVL13:
  62:Core/Src/indcpa.c **** 
 195              		.loc 1 62 1 is_stmt 0 view .LVU42
 196 0014 38BD     		pop	{r3, r4, r5, pc}
  62:Core/Src/indcpa.c **** 
 197              		.loc 1 62 1 view .LVU43
 198              		.cfi_endproc
 199              	.LFE2:
 201              		.section	.text.unpack_ciphertext,"ax",%progbits
 202              		.align	1
 203              		.syntax unified
 204              		.thumb
 205              		.thumb_func
 206              		.fpu fpv4-sp-d16
 208              	unpack_ciphertext:
 209              	.LVL14:
 210              	.LFB3:
  75:Core/Src/indcpa.c ****   polyvec_decompress(b, c);
 211              		.loc 1 75 1 is_stmt 1 view -0
 212              		.cfi_startproc
 213              		@ args = 0, pretend = 0, frame = 0
 214              		@ frame_needed = 0, uses_anonymous_args = 0
  75:Core/Src/indcpa.c ****   polyvec_decompress(b, c);
 215              		.loc 1 75 1 is_stmt 0 view .LVU45
 216 0000 38B5     		push	{r3, r4, r5, lr}
 217              	.LCFI4:
 218              		.cfi_def_cfa_offset 16
ARM GAS  C:\Users\11410\AppData\Local\Temp\ccbR4jD6.s 			page 7


 219              		.cfi_offset 3, -16
 220              		.cfi_offset 4, -12
 221              		.cfi_offset 5, -8
 222              		.cfi_offset 14, -4
 223 0002 0D46     		mov	r5, r1
 224 0004 1446     		mov	r4, r2
  76:Core/Src/indcpa.c ****   poly_decompress(v, c+KYBER_POLYVECCOMPRESSEDBYTES);
 225              		.loc 1 76 3 is_stmt 1 view .LVU46
 226 0006 1146     		mov	r1, r2
 227              	.LVL15:
  76:Core/Src/indcpa.c ****   poly_decompress(v, c+KYBER_POLYVECCOMPRESSEDBYTES);
 228              		.loc 1 76 3 is_stmt 0 view .LVU47
 229 0008 FFF7FEFF 		bl	polyvec_decompress
 230              	.LVL16:
  77:Core/Src/indcpa.c **** }
 231              		.loc 1 77 3 is_stmt 1 view .LVU48
 232 000c 04F58461 		add	r1, r4, #1056
 233 0010 2846     		mov	r0, r5
 234 0012 FFF7FEFF 		bl	poly_decompress
 235              	.LVL17:
  78:Core/Src/indcpa.c **** 
 236              		.loc 1 78 1 is_stmt 0 view .LVU49
 237 0016 38BD     		pop	{r3, r4, r5, pc}
  78:Core/Src/indcpa.c **** 
 238              		.loc 1 78 1 view .LVU50
 239              		.cfi_endproc
 240              	.LFE3:
 242              		.section	.text.unpack_sk,"ax",%progbits
 243              		.align	1
 244              		.syntax unified
 245              		.thumb
 246              		.thumb_func
 247              		.fpu fpv4-sp-d16
 249              	unpack_sk:
 250              	.LVL18:
 251              	.LFB5:
  92:Core/Src/indcpa.c **** 
  93:Core/Src/indcpa.c **** /*************************************************
  94:Core/Src/indcpa.c **** * Name:        unpack_sk
  95:Core/Src/indcpa.c **** * 
  96:Core/Src/indcpa.c **** * Description: De-serialize the secret key;
  97:Core/Src/indcpa.c **** *              inverse of pack_sk
  98:Core/Src/indcpa.c **** *
  99:Core/Src/indcpa.c **** * Arguments:   - polyvec *sk:                   pointer to output vector of polynomials (secret key
 100:Core/Src/indcpa.c **** *              - const unsigned char *packedsk: pointer to input serialized secret key
 101:Core/Src/indcpa.c **** **************************************************/
 102:Core/Src/indcpa.c **** static void unpack_sk(polyvec *sk, const unsigned char *packedsk)
 103:Core/Src/indcpa.c **** {
 252              		.loc 1 103 1 is_stmt 1 view -0
 253              		.cfi_startproc
 254              		@ args = 0, pretend = 0, frame = 0
 255              		@ frame_needed = 0, uses_anonymous_args = 0
 256              		.loc 1 103 1 is_stmt 0 view .LVU52
 257 0000 08B5     		push	{r3, lr}
 258              	.LCFI5:
 259              		.cfi_def_cfa_offset 8
 260              		.cfi_offset 3, -8
ARM GAS  C:\Users\11410\AppData\Local\Temp\ccbR4jD6.s 			page 8


 261              		.cfi_offset 14, -4
 104:Core/Src/indcpa.c ****   polyvec_frombytes(sk, packedsk);
 262              		.loc 1 104 3 is_stmt 1 view .LVU53
 263 0002 FFF7FEFF 		bl	polyvec_frombytes
 264              	.LVL19:
 105:Core/Src/indcpa.c **** }
 265              		.loc 1 105 1 is_stmt 0 view .LVU54
 266 0006 08BD     		pop	{r3, pc}
 267              		.cfi_endproc
 268              	.LFE5:
 270              		.section	.text.gen_matrix,"ax",%progbits
 271              		.align	1
 272              		.global	gen_matrix
 273              		.syntax unified
 274              		.thumb
 275              		.thumb_func
 276              		.fpu fpv4-sp-d16
 278              	gen_matrix:
 279              	.LVL20:
 280              	.LFB6:
 106:Core/Src/indcpa.c **** 
 107:Core/Src/indcpa.c **** #define gen_a(A,B)  gen_matrix(A,B,0)
 108:Core/Src/indcpa.c **** #define gen_at(A,B) gen_matrix(A,B,1)
 109:Core/Src/indcpa.c **** 
 110:Core/Src/indcpa.c **** /*************************************************
 111:Core/Src/indcpa.c **** * Name:        gen_matrix
 112:Core/Src/indcpa.c **** * 
 113:Core/Src/indcpa.c **** * Description: Deterministically generate matrix A (or the transpose of A)
 114:Core/Src/indcpa.c **** *              from a seed. Entries of the matrix are polynomials that look
 115:Core/Src/indcpa.c **** *              uniformly random. Performs rejection sampling on output of 
 116:Core/Src/indcpa.c **** *              SHAKE-128
 117:Core/Src/indcpa.c **** *
 118:Core/Src/indcpa.c **** * Arguments:   - polyvec *a:                pointer to ouptput matrix A
 119:Core/Src/indcpa.c **** *              - const unsigned char *seed: pointer to input seed
 120:Core/Src/indcpa.c **** *              - int transposed:            boolean deciding whether A or A^T is generated
 121:Core/Src/indcpa.c **** **************************************************/
 122:Core/Src/indcpa.c **** void gen_matrix(polyvec *a, const unsigned char *seed, int transposed) // Not static for benchmarki
 123:Core/Src/indcpa.c **** {
 281              		.loc 1 123 1 is_stmt 1 view -0
 282              		.cfi_startproc
 283              		@ args = 0, pretend = 0, frame = 248
 284              		@ frame_needed = 1, uses_anonymous_args = 0
 285              		.loc 1 123 1 is_stmt 0 view .LVU56
 286 0000 2DE9F04F 		push	{r4, r5, r6, r7, r8, r9, r10, fp, lr}
 287              	.LCFI6:
 288              		.cfi_def_cfa_offset 36
 289              		.cfi_offset 4, -36
 290              		.cfi_offset 5, -32
 291              		.cfi_offset 6, -28
 292              		.cfi_offset 7, -24
 293              		.cfi_offset 8, -20
 294              		.cfi_offset 9, -16
 295              		.cfi_offset 10, -12
 296              		.cfi_offset 11, -8
 297              		.cfi_offset 14, -4
 298 0004 C1B0     		sub	sp, sp, #260
 299              	.LCFI7:
ARM GAS  C:\Users\11410\AppData\Local\Temp\ccbR4jD6.s 			page 9


 300              		.cfi_def_cfa_offset 296
 301 0006 02AF     		add	r7, sp, #8
 302              	.LCFI8:
 303              		.cfi_def_cfa 7, 288
 304 0008 8346     		mov	fp, r0
 305 000a 7A60     		str	r2, [r7, #4]
 124:Core/Src/indcpa.c ****   unsigned int pos=0, ctr;
 306              		.loc 1 124 3 is_stmt 1 view .LVU57
 307              	.LVL21:
 125:Core/Src/indcpa.c ****   uint16_t val;
 308              		.loc 1 125 3 view .LVU58
 126:Core/Src/indcpa.c ****   unsigned int nblocks=4;
 309              		.loc 1 126 3 view .LVU59
 127:Core/Src/indcpa.c ****   uint8_t buf[SHAKE128_RATE*nblocks];
 310              		.loc 1 127 3 view .LVU60
 311              		.loc 1 127 11 is_stmt 0 view .LVU61
 312 000c ADF5287D 		sub	sp, sp, #672
 313 0010 02AE     		add	r6, sp, #8
 314              	.LVL22:
 128:Core/Src/indcpa.c ****   int i,j;
 315              		.loc 1 128 3 is_stmt 1 view .LVU62
 129:Core/Src/indcpa.c ****   uint8_t state[200]; // SHAKE state
 316              		.loc 1 129 3 view .LVU63
 130:Core/Src/indcpa.c ****   unsigned char extseed[KYBER_SYMBYTES+2];
 317              		.loc 1 130 3 view .LVU64
 131:Core/Src/indcpa.c **** 
 132:Core/Src/indcpa.c ****   for(i=0;i<KYBER_SYMBYTES;i++)
 318              		.loc 1 132 3 view .LVU65
 319              		.loc 1 132 8 is_stmt 0 view .LVU66
 320 0012 0023     		movs	r3, #0
 321              	.LVL23:
 322              	.L20:
 323              		.loc 1 132 11 is_stmt 1 discriminator 1 view .LVU67
 324              		.loc 1 132 3 is_stmt 0 discriminator 1 view .LVU68
 325 0014 1F2B     		cmp	r3, #31
 326 0016 07DC     		bgt	.L33
 133:Core/Src/indcpa.c ****     extseed[i] = seed[i];
 327              		.loc 1 133 5 is_stmt 1 discriminator 3 view .LVU69
 328              		.loc 1 133 22 is_stmt 0 discriminator 3 view .LVU70
 329 0018 C85C     		ldrb	r0, [r1, r3]	@ zero_extendqisi2
 330              		.loc 1 133 16 discriminator 3 view .LVU71
 331 001a 07F1F802 		add	r2, r7, #248
 332              	.LVL24:
 333              		.loc 1 133 16 discriminator 3 view .LVU72
 334 001e 1A44     		add	r2, r2, r3
 335              	.LVL25:
 336              		.loc 1 133 16 discriminator 3 view .LVU73
 337 0020 02F8EC0C 		strb	r0, [r2, #-236]
 132:Core/Src/indcpa.c ****     extseed[i] = seed[i];
 338              		.loc 1 132 28 is_stmt 1 discriminator 3 view .LVU74
 132:Core/Src/indcpa.c ****     extseed[i] = seed[i];
 339              		.loc 1 132 29 is_stmt 0 discriminator 3 view .LVU75
 340 0024 0133     		adds	r3, r3, #1
 341              	.LVL26:
 132:Core/Src/indcpa.c ****     extseed[i] = seed[i];
 342              		.loc 1 132 29 discriminator 3 view .LVU76
 343 0026 F5E7     		b	.L20
ARM GAS  C:\Users\11410\AppData\Local\Temp\ccbR4jD6.s 			page 10


 344              	.L33:
 134:Core/Src/indcpa.c **** 
 135:Core/Src/indcpa.c ****   for(i=0;i<KYBER_K;i++)
 345              		.loc 1 135 8 view .LVU77
 346 0028 4FF00009 		mov	r9, #0
 126:Core/Src/indcpa.c ****   uint8_t buf[SHAKE128_RATE*nblocks];
 347              		.loc 1 126 16 view .LVU78
 348 002c 4FF00408 		mov	r8, #4
 349 0030 4CE0     		b	.L22
 350              	.LVL27:
 351              	.L23:
 136:Core/Src/indcpa.c ****   {
 137:Core/Src/indcpa.c ****     for(j=0;j<KYBER_K;j++)
 138:Core/Src/indcpa.c ****     {
 139:Core/Src/indcpa.c ****       ctr = pos = 0;
 140:Core/Src/indcpa.c ****       if(transposed) 
 141:Core/Src/indcpa.c ****       {
 142:Core/Src/indcpa.c ****         extseed[KYBER_SYMBYTES]   = i;
 143:Core/Src/indcpa.c ****         extseed[KYBER_SYMBYTES+1] = j;
 144:Core/Src/indcpa.c ****       }
 145:Core/Src/indcpa.c ****       else
 146:Core/Src/indcpa.c ****       {
 147:Core/Src/indcpa.c ****         extseed[KYBER_SYMBYTES]   = j;
 352              		.loc 1 147 9 is_stmt 1 view .LVU79
 353              		.loc 1 147 35 is_stmt 0 view .LVU80
 354 0032 87F82CA0 		strb	r10, [r7, #44]
 148:Core/Src/indcpa.c ****         extseed[KYBER_SYMBYTES+1] = i;
 355              		.loc 1 148 9 is_stmt 1 view .LVU81
 356              		.loc 1 148 35 is_stmt 0 view .LVU82
 357 0036 87F82D90 		strb	r9, [r7, #45]
 358 003a 34E0     		b	.L24
 359              	.LVL28:
 360              	.L26:
 149:Core/Src/indcpa.c ****       }
 150:Core/Src/indcpa.c ****         
 151:Core/Src/indcpa.c ****       shake128_absorb(state,extseed,KYBER_SYMBYTES+2);
 152:Core/Src/indcpa.c ****       shake128_squeezeblocks(buf,nblocks,state);
 153:Core/Src/indcpa.c **** 
 154:Core/Src/indcpa.c ****       while(ctr < KYBER_N)
 155:Core/Src/indcpa.c ****       {
 156:Core/Src/indcpa.c ****         val = (buf[pos] | ((uint16_t) buf[pos+1] << 8)) & 0x1fff;
 157:Core/Src/indcpa.c ****         if(val < KYBER_Q)
 158:Core/Src/indcpa.c ****         {
 159:Core/Src/indcpa.c ****             a[i].vec[j].coeffs[ctr++] = val;
 160:Core/Src/indcpa.c ****         }
 161:Core/Src/indcpa.c ****         pos += 2;
 361              		.loc 1 161 9 is_stmt 1 view .LVU83
 362              		.loc 1 161 13 is_stmt 0 view .LVU84
 363 003c 0234     		adds	r4, r4, #2
 364              	.LVL29:
 162:Core/Src/indcpa.c **** 
 163:Core/Src/indcpa.c ****         if(pos > SHAKE128_RATE*nblocks-2)
 365              		.loc 1 163 9 is_stmt 1 view .LVU85
 366              		.loc 1 163 31 is_stmt 0 view .LVU86
 367 003e A823     		movs	r3, #168
 368              	.LVL30:
 369              		.loc 1 163 31 view .LVU87
ARM GAS  C:\Users\11410\AppData\Local\Temp\ccbR4jD6.s 			page 11


 370 0040 03FB08F3 		mul	r3, r3, r8
 371              		.loc 1 163 39 view .LVU88
 372 0044 023B     		subs	r3, r3, #2
 373              		.loc 1 163 11 view .LVU89
 374 0046 A342     		cmp	r3, r4
 375 0048 15D3     		bcc	.L34
 376              	.LVL31:
 377              	.L25:
 154:Core/Src/indcpa.c ****       {
 378              		.loc 1 154 12 is_stmt 1 view .LVU90
 379 004a FF2D     		cmp	r5, #255
 380 004c 1FD8     		bhi	.L35
 156:Core/Src/indcpa.c ****         if(val < KYBER_Q)
 381              		.loc 1 156 9 view .LVU91
 156:Core/Src/indcpa.c ****         if(val < KYBER_Q)
 382              		.loc 1 156 19 is_stmt 0 view .LVU92
 383 004e 335D     		ldrb	r3, [r6, r4]	@ zero_extendqisi2
 156:Core/Src/indcpa.c ****         if(val < KYBER_Q)
 384              		.loc 1 156 46 view .LVU93
 385 0050 621C     		adds	r2, r4, #1
 156:Core/Src/indcpa.c ****         if(val < KYBER_Q)
 386              		.loc 1 156 42 view .LVU94
 387 0052 B25C     		ldrb	r2, [r6, r2]	@ zero_extendqisi2
 156:Core/Src/indcpa.c ****         if(val < KYBER_Q)
 388              		.loc 1 156 57 view .LVU95
 389 0054 43EA0223 		orr	r3, r3, r2, lsl #8
 156:Core/Src/indcpa.c ****         if(val < KYBER_Q)
 390              		.loc 1 156 13 view .LVU96
 391 0058 C3F30C03 		ubfx	r3, r3, #0, #13
 392              	.LVL32:
 157:Core/Src/indcpa.c ****         {
 393              		.loc 1 157 9 is_stmt 1 view .LVU97
 157:Core/Src/indcpa.c ****         {
 394              		.loc 1 157 11 is_stmt 0 view .LVU98
 395 005c B3F5F05F 		cmp	r3, #7680
 396 0060 ECD8     		bhi	.L26
 159:Core/Src/indcpa.c ****         }
 397              		.loc 1 159 13 is_stmt 1 view .LVU99
 159:Core/Src/indcpa.c ****         }
 398              		.loc 1 159 14 is_stmt 0 view .LVU100
 399 0062 09EB4902 		add	r2, r9, r9, lsl #1
 400 0066 0BEB4222 		add	r2, fp, r2, lsl #9
 401              	.LVL33:
 159:Core/Src/indcpa.c ****         }
 402              		.loc 1 159 39 view .LVU101
 403 006a 05EB0A21 		add	r1, r5, r10, lsl #8
 404 006e 22F81130 		strh	r3, [r2, r1, lsl #1]	@ movhi
 159:Core/Src/indcpa.c ****         }
 405              		.loc 1 159 35 view .LVU102
 406 0072 0135     		adds	r5, r5, #1
 407              	.LVL34:
 159:Core/Src/indcpa.c ****         }
 408              		.loc 1 159 35 view .LVU103
 409 0074 E2E7     		b	.L26
 410              	.LVL35:
 411              	.L34:
 164:Core/Src/indcpa.c ****         {
ARM GAS  C:\Users\11410\AppData\Local\Temp\ccbR4jD6.s 			page 12


 165:Core/Src/indcpa.c ****           nblocks = 1;
 412              		.loc 1 165 11 is_stmt 1 view .LVU104
 166:Core/Src/indcpa.c ****           shake128_squeezeblocks(buf,nblocks,state);
 413              		.loc 1 166 11 view .LVU105
 414 0076 07F13003 		add	r3, r7, #48
 415 007a 0093     		str	r3, [sp]
 416 007c 0122     		movs	r2, #1
 417 007e 0023     		movs	r3, #0
 418 0080 3046     		mov	r0, r6
 419 0082 FFF7FEFF 		bl	shake128_squeezeblocks
 420              	.LVL36:
 167:Core/Src/indcpa.c ****           pos = 0;
 421              		.loc 1 167 11 view .LVU106
 165:Core/Src/indcpa.c ****           shake128_squeezeblocks(buf,nblocks,state);
 422              		.loc 1 165 19 is_stmt 0 view .LVU107
 423 0086 4FF00108 		mov	r8, #1
 424              		.loc 1 167 15 view .LVU108
 425 008a 0024     		movs	r4, #0
 426 008c DDE7     		b	.L25
 427              	.LVL37:
 428              	.L35:
 137:Core/Src/indcpa.c ****     {
 429              		.loc 1 137 23 is_stmt 1 discriminator 2 view .LVU109
 137:Core/Src/indcpa.c ****     {
 430              		.loc 1 137 24 is_stmt 0 discriminator 2 view .LVU110
 431 008e 0AF1010A 		add	r10, r10, #1
 432              	.LVL38:
 433              	.L30:
 137:Core/Src/indcpa.c ****     {
 434              		.loc 1 137 13 is_stmt 1 discriminator 1 view .LVU111
 137:Core/Src/indcpa.c ****     {
 435              		.loc 1 137 5 is_stmt 0 discriminator 1 view .LVU112
 436 0092 BAF1020F 		cmp	r10, #2
 437 0096 17DC     		bgt	.L36
 139:Core/Src/indcpa.c ****       if(transposed) 
 438              		.loc 1 139 7 is_stmt 1 view .LVU113
 439              	.LVL39:
 140:Core/Src/indcpa.c ****       {
 440              		.loc 1 140 7 view .LVU114
 140:Core/Src/indcpa.c ****       {
 441              		.loc 1 140 9 is_stmt 0 view .LVU115
 442 0098 7B68     		ldr	r3, [r7, #4]
 443 009a 002B     		cmp	r3, #0
 444 009c C9D0     		beq	.L23
 142:Core/Src/indcpa.c ****         extseed[KYBER_SYMBYTES+1] = j;
 445              		.loc 1 142 9 is_stmt 1 view .LVU116
 142:Core/Src/indcpa.c ****         extseed[KYBER_SYMBYTES+1] = j;
 446              		.loc 1 142 35 is_stmt 0 view .LVU117
 447 009e 87F82C90 		strb	r9, [r7, #44]
 143:Core/Src/indcpa.c ****       }
 448              		.loc 1 143 9 is_stmt 1 view .LVU118
 143:Core/Src/indcpa.c ****       }
 449              		.loc 1 143 35 is_stmt 0 view .LVU119
 450 00a2 87F82DA0 		strb	r10, [r7, #45]
 451              	.L24:
 151:Core/Src/indcpa.c ****       shake128_squeezeblocks(buf,nblocks,state);
 452              		.loc 1 151 7 is_stmt 1 view .LVU120
ARM GAS  C:\Users\11410\AppData\Local\Temp\ccbR4jD6.s 			page 13


 453 00a6 07F13005 		add	r5, r7, #48
 454 00aa 2222     		movs	r2, #34
 455 00ac 07F10C01 		add	r1, r7, #12
 456 00b0 2846     		mov	r0, r5
 457 00b2 FFF7FEFF 		bl	shake128_absorb
 458              	.LVL40:
 152:Core/Src/indcpa.c **** 
 459              		.loc 1 152 7 view .LVU121
 460 00b6 0024     		movs	r4, #0
 461 00b8 0095     		str	r5, [sp]
 462 00ba 4246     		mov	r2, r8
 463 00bc 2346     		mov	r3, r4
 464 00be 3046     		mov	r0, r6
 465 00c0 FFF7FEFF 		bl	shake128_squeezeblocks
 466              	.LVL41:
 154:Core/Src/indcpa.c ****       {
 467              		.loc 1 154 7 view .LVU122
 139:Core/Src/indcpa.c ****       if(transposed) 
 468              		.loc 1 139 11 is_stmt 0 view .LVU123
 469 00c4 2546     		mov	r5, r4
 154:Core/Src/indcpa.c ****       {
 470              		.loc 1 154 12 view .LVU124
 471 00c6 C0E7     		b	.L25
 472              	.LVL42:
 473              	.L36:
 135:Core/Src/indcpa.c ****   {
 474              		.loc 1 135 21 is_stmt 1 discriminator 2 view .LVU125
 135:Core/Src/indcpa.c ****   {
 475              		.loc 1 135 22 is_stmt 0 discriminator 2 view .LVU126
 476 00c8 09F10109 		add	r9, r9, #1
 477              	.LVL43:
 478              	.L22:
 135:Core/Src/indcpa.c ****   {
 479              		.loc 1 135 11 is_stmt 1 discriminator 1 view .LVU127
 135:Core/Src/indcpa.c ****   {
 480              		.loc 1 135 3 is_stmt 0 discriminator 1 view .LVU128
 481 00cc B9F1020F 		cmp	r9, #2
 482 00d0 02DC     		bgt	.L37
 137:Core/Src/indcpa.c ****     {
 483              		.loc 1 137 10 view .LVU129
 484 00d2 4FF0000A 		mov	r10, #0
 485 00d6 DCE7     		b	.L30
 486              	.L37:
 168:Core/Src/indcpa.c ****         }
 169:Core/Src/indcpa.c ****       }
 170:Core/Src/indcpa.c ****     }
 171:Core/Src/indcpa.c ****   }
 172:Core/Src/indcpa.c **** }
 487              		.loc 1 172 1 view .LVU130
 488 00d8 FC37     		adds	r7, r7, #252
 489              	.LCFI9:
 490              		.cfi_def_cfa_offset 36
 491              	.LVL44:
 492              		.loc 1 172 1 view .LVU131
 493 00da BD46     		mov	sp, r7
 494              	.LCFI10:
 495              		.cfi_def_cfa_register 13
ARM GAS  C:\Users\11410\AppData\Local\Temp\ccbR4jD6.s 			page 14


 496              		@ sp needed
 497 00dc BDE8F08F 		pop	{r4, r5, r6, r7, r8, r9, r10, fp, pc}
 498              		.loc 1 172 1 view .LVU132
 499              		.cfi_endproc
 500              	.LFE6:
 502              		.section	.rodata.indcpa_keypair.str1.4,"aMS",%progbits,1
 503              		.align	2
 504              	.LC0:
 505 0000 7075626C 		.ascii	"publicseed: \000"
 505      69637365 
 505      65643A20 
 505      00
 506 000d 000000   		.align	2
 507              	.LC1:
 508 0010 25303278 		.ascii	"%02x\000"
 508      00
 509 0015 000000   		.align	2
 510              	.LC2:
 511 0018 6E6F6973 		.ascii	"noiseseed: \000"
 511      65736565 
 511      643A2000 
 512              		.section	.text.indcpa_keypair,"ax",%progbits
 513              		.align	1
 514              		.global	indcpa_keypair
 515              		.syntax unified
 516              		.thumb
 517              		.thumb_func
 518              		.fpu fpv4-sp-d16
 520              	indcpa_keypair:
 521              	.LVL45:
 522              	.LFB7:
 173:Core/Src/indcpa.c **** 
 174:Core/Src/indcpa.c **** 
 175:Core/Src/indcpa.c **** /*************************************************
 176:Core/Src/indcpa.c **** * Name:        indcpa_keypair
 177:Core/Src/indcpa.c **** * 
 178:Core/Src/indcpa.c **** * Description: Generates public and private key for the CPA-secure 
 179:Core/Src/indcpa.c **** *              public-key encryption scheme underlying Kyber
 180:Core/Src/indcpa.c **** *
 181:Core/Src/indcpa.c **** * Arguments:   - unsigned char *pk: pointer to output public key
 182:Core/Src/indcpa.c **** *              - unsigned char *sk: pointer to output private key
 183:Core/Src/indcpa.c **** **************************************************/
 184:Core/Src/indcpa.c **** void indcpa_keypair(unsigned char *pk, 
 185:Core/Src/indcpa.c ****                    unsigned char *sk)
 186:Core/Src/indcpa.c **** {
 523              		.loc 1 186 1 is_stmt 1 view -0
 524              		.cfi_startproc
 525              		@ args = 0, pretend = 0, frame = 9280
 526              		@ frame_needed = 0, uses_anonymous_args = 0
 527              		.loc 1 186 1 is_stmt 0 view .LVU134
 528 0000 2DE9F041 		push	{r4, r5, r6, r7, r8, lr}
 529              	.LCFI11:
 530              		.cfi_def_cfa_offset 24
 531              		.cfi_offset 4, -24
 532              		.cfi_offset 5, -20
 533              		.cfi_offset 6, -16
 534              		.cfi_offset 7, -12
ARM GAS  C:\Users\11410\AppData\Local\Temp\ccbR4jD6.s 			page 15


 535              		.cfi_offset 8, -8
 536              		.cfi_offset 14, -4
 537 0004 ADF5115D 		sub	sp, sp, #9280
 538              	.LCFI12:
 539              		.cfi_def_cfa_offset 9304
 540 0008 0546     		mov	r5, r0
 541 000a 0E46     		mov	r6, r1
 187:Core/Src/indcpa.c ****   polyvec a[KYBER_K], e, pkpv, skpv;
 542              		.loc 1 187 3 is_stmt 1 view .LVU135
 188:Core/Src/indcpa.c ****   unsigned char buf[KYBER_SYMBYTES+KYBER_SYMBYTES];
 543              		.loc 1 188 3 view .LVU136
 189:Core/Src/indcpa.c ****   unsigned char *publicseed = buf;
 544              		.loc 1 189 3 view .LVU137
 545              	.LVL46:
 190:Core/Src/indcpa.c ****   unsigned char *noiseseed = buf+KYBER_SYMBYTES;
 546              		.loc 1 190 3 view .LVU138
 191:Core/Src/indcpa.c ****   int i;
 547              		.loc 1 191 3 view .LVU139
 192:Core/Src/indcpa.c ****   unsigned char nonce=0;
 548              		.loc 1 192 3 view .LVU140
 193:Core/Src/indcpa.c ****   printf("\n");
 549              		.loc 1 193 3 view .LVU141
 550 000c 0A20     		movs	r0, #10
 551              	.LVL47:
 552              		.loc 1 193 3 is_stmt 0 view .LVU142
 553 000e FFF7FEFF 		bl	putchar
 554              	.LVL48:
 194:Core/Src/indcpa.c ****   printf("publicseed: ");        
 555              		.loc 1 194 3 is_stmt 1 view .LVU143
 556 0012 5E48     		ldr	r0, .L62
 557 0014 FFF7FEFF 		bl	printf
 558              	.LVL49:
 195:Core/Src/indcpa.c ****   for (i = 0; i < 32; i++) printf("%02x", publicseed[i]);
 559              		.loc 1 195 3 view .LVU144
 560              		.loc 1 195 10 is_stmt 0 view .LVU145
 561 0018 0024     		movs	r4, #0
 562              	.LVL50:
 563              	.L39:
 564              		.loc 1 195 15 is_stmt 1 discriminator 1 view .LVU146
 565              		.loc 1 195 3 is_stmt 0 discriminator 1 view .LVU147
 566 001a 1F2C     		cmp	r4, #31
 567 001c 06DC     		bgt	.L57
 568              		.loc 1 195 28 is_stmt 1 discriminator 3 view .LVU148
 569 001e 1DF80410 		ldrb	r1, [sp, r4]	@ zero_extendqisi2
 570 0022 5B48     		ldr	r0, .L62+4
 571 0024 FFF7FEFF 		bl	printf
 572              	.LVL51:
 573              		.loc 1 195 23 discriminator 3 view .LVU149
 574              		.loc 1 195 24 is_stmt 0 discriminator 3 view .LVU150
 575 0028 0134     		adds	r4, r4, #1
 576              	.LVL52:
 577              		.loc 1 195 24 discriminator 3 view .LVU151
 578 002a F6E7     		b	.L39
 579              	.L57:
 196:Core/Src/indcpa.c ****   printf("\n");
 580              		.loc 1 196 3 is_stmt 1 view .LVU152
 581 002c 0A20     		movs	r0, #10
ARM GAS  C:\Users\11410\AppData\Local\Temp\ccbR4jD6.s 			page 16


 582 002e FFF7FEFF 		bl	putchar
 583              	.LVL53:
 197:Core/Src/indcpa.c ****   printf("noiseseed: ");        
 584              		.loc 1 197 3 view .LVU153
 585 0032 5848     		ldr	r0, .L62+8
 586 0034 FFF7FEFF 		bl	printf
 587              	.LVL54:
 198:Core/Src/indcpa.c ****   for (i = 0; i < 32; i++) printf("%02x", noiseseed[i]);
 588              		.loc 1 198 3 view .LVU154
 589              		.loc 1 198 10 is_stmt 0 view .LVU155
 590 0038 0024     		movs	r4, #0
 591              	.LVL55:
 592              	.L41:
 593              		.loc 1 198 15 is_stmt 1 discriminator 1 view .LVU156
 594              		.loc 1 198 3 is_stmt 0 discriminator 1 view .LVU157
 595 003a 1F2C     		cmp	r4, #31
 596 003c 06DC     		bgt	.L58
 597              		.loc 1 198 28 is_stmt 1 discriminator 3 view .LVU158
 598 003e 08AB     		add	r3, sp, #32
 599              	.LVL56:
 600              		.loc 1 198 28 is_stmt 0 discriminator 3 view .LVU159
 601 0040 195D     		ldrb	r1, [r3, r4]	@ zero_extendqisi2
 602 0042 5348     		ldr	r0, .L62+4
 603 0044 FFF7FEFF 		bl	printf
 604              	.LVL57:
 605              		.loc 1 198 23 is_stmt 1 discriminator 3 view .LVU160
 606              		.loc 1 198 24 is_stmt 0 discriminator 3 view .LVU161
 607 0048 0134     		adds	r4, r4, #1
 608              	.LVL58:
 609              		.loc 1 198 24 discriminator 3 view .LVU162
 610 004a F6E7     		b	.L41
 611              	.L58:
 199:Core/Src/indcpa.c **** 
 200:Core/Src/indcpa.c ****   randombytes(buf, KYBER_SYMBYTES+KYBER_SYMBYTES);
 612              		.loc 1 200 3 is_stmt 1 view .LVU163
 613 004c 4022     		movs	r2, #64
 614 004e 0023     		movs	r3, #0
 615 0050 6846     		mov	r0, sp
 616 0052 FFF7FEFF 		bl	randombytes
 617              	.LVL59:
 201:Core/Src/indcpa.c **** 
 202:Core/Src/indcpa.c ****   printf("\n");
 618              		.loc 1 202 3 view .LVU164
 619 0056 0A20     		movs	r0, #10
 620 0058 FFF7FEFF 		bl	putchar
 621              	.LVL60:
 203:Core/Src/indcpa.c ****   printf("\n");
 622              		.loc 1 203 3 view .LVU165
 623 005c 0A20     		movs	r0, #10
 624 005e FFF7FEFF 		bl	putchar
 625              	.LVL61:
 204:Core/Src/indcpa.c ****   for (i = 0; i < 64.; i++) {
 626              		.loc 1 204 3 view .LVU166
 627              		.loc 1 204 10 is_stmt 0 view .LVU167
 628 0062 0024     		movs	r4, #0
 629              		.loc 1 204 3 view .LVU168
 630 0064 05E0     		b	.L43
ARM GAS  C:\Users\11410\AppData\Local\Temp\ccbR4jD6.s 			page 17


 631              	.LVL62:
 632              	.L44:
 205:Core/Src/indcpa.c ****     if(i>31)buf[i]=0;
 206:Core/Src/indcpa.c ****     printf("%02x", buf[i]);
 633              		.loc 1 206 5 is_stmt 1 discriminator 2 view .LVU169
 634 0066 1DF80410 		ldrb	r1, [sp, r4]	@ zero_extendqisi2
 635 006a 4948     		ldr	r0, .L62+4
 636 006c FFF7FEFF 		bl	printf
 637              	.LVL63:
 204:Core/Src/indcpa.c ****   for (i = 0; i < 64.; i++) {
 638              		.loc 1 204 24 discriminator 2 view .LVU170
 204:Core/Src/indcpa.c ****   for (i = 0; i < 64.; i++) {
 639              		.loc 1 204 25 is_stmt 0 discriminator 2 view .LVU171
 640 0070 0134     		adds	r4, r4, #1
 641              	.LVL64:
 642              	.L43:
 204:Core/Src/indcpa.c ****   for (i = 0; i < 64.; i++) {
 643              		.loc 1 204 15 is_stmt 1 discriminator 1 view .LVU172
 204:Core/Src/indcpa.c ****   for (i = 0; i < 64.; i++) {
 644              		.loc 1 204 3 is_stmt 0 discriminator 1 view .LVU173
 645 0072 3F2C     		cmp	r4, #63
 646 0074 05DC     		bgt	.L59
 205:Core/Src/indcpa.c ****     if(i>31)buf[i]=0;
 647              		.loc 1 205 5 is_stmt 1 view .LVU174
 205:Core/Src/indcpa.c ****     if(i>31)buf[i]=0;
 648              		.loc 1 205 7 is_stmt 0 view .LVU175
 649 0076 1F2C     		cmp	r4, #31
 650 0078 F5DD     		ble	.L44
 205:Core/Src/indcpa.c ****     if(i>31)buf[i]=0;
 651              		.loc 1 205 13 is_stmt 1 discriminator 1 view .LVU176
 205:Core/Src/indcpa.c ****     if(i>31)buf[i]=0;
 652              		.loc 1 205 19 is_stmt 0 discriminator 1 view .LVU177
 653 007a 0023     		movs	r3, #0
 654 007c 0DF80430 		strb	r3, [sp, r4]
 655 0080 F1E7     		b	.L44
 656              	.L59:
 207:Core/Src/indcpa.c ****   }
 208:Core/Src/indcpa.c ****   printf("\n");
 657              		.loc 1 208 3 is_stmt 1 view .LVU178
 658 0082 0A20     		movs	r0, #10
 659 0084 FFF7FEFF 		bl	putchar
 660              	.LVL65:
 209:Core/Src/indcpa.c ****   printf("\n");
 661              		.loc 1 209 3 view .LVU179
 662 0088 0A20     		movs	r0, #10
 663 008a FFF7FEFF 		bl	putchar
 664              	.LVL66:
 210:Core/Src/indcpa.c **** 
 211:Core/Src/indcpa.c ****   sha3_512(buf, buf, KYBER_SYMBYTES+KYBER_SYMBYTES);
 665              		.loc 1 211 3 view .LVU180
 666 008e 4022     		movs	r2, #64
 667 0090 0023     		movs	r3, #0
 668 0092 6946     		mov	r1, sp
 669 0094 6846     		mov	r0, sp
 670 0096 FFF7FEFF 		bl	sha3_512
 671              	.LVL67:
 212:Core/Src/indcpa.c ****   printf("\n");
ARM GAS  C:\Users\11410\AppData\Local\Temp\ccbR4jD6.s 			page 18


 672              		.loc 1 212 3 view .LVU181
 673 009a 0A20     		movs	r0, #10
 674 009c FFF7FEFF 		bl	putchar
 675              	.LVL68:
 213:Core/Src/indcpa.c ****   printf("publicseed: ");        
 676              		.loc 1 213 3 view .LVU182
 677 00a0 3A48     		ldr	r0, .L62
 678 00a2 FFF7FEFF 		bl	printf
 679              	.LVL69:
 214:Core/Src/indcpa.c ****   for (i = 0; i < 32; i++) printf("%02x", publicseed[i]);
 680              		.loc 1 214 3 view .LVU183
 681              		.loc 1 214 10 is_stmt 0 view .LVU184
 682 00a6 0024     		movs	r4, #0
 683              	.LVL70:
 684              	.L46:
 685              		.loc 1 214 15 is_stmt 1 discriminator 1 view .LVU185
 686              		.loc 1 214 3 is_stmt 0 discriminator 1 view .LVU186
 687 00a8 1F2C     		cmp	r4, #31
 688 00aa 06DC     		bgt	.L60
 689              		.loc 1 214 28 is_stmt 1 discriminator 3 view .LVU187
 690 00ac 1DF80410 		ldrb	r1, [sp, r4]	@ zero_extendqisi2
 691 00b0 3748     		ldr	r0, .L62+4
 692 00b2 FFF7FEFF 		bl	printf
 693              	.LVL71:
 694              		.loc 1 214 23 discriminator 3 view .LVU188
 695              		.loc 1 214 24 is_stmt 0 discriminator 3 view .LVU189
 696 00b6 0134     		adds	r4, r4, #1
 697              	.LVL72:
 698              		.loc 1 214 24 discriminator 3 view .LVU190
 699 00b8 F6E7     		b	.L46
 700              	.L60:
 215:Core/Src/indcpa.c ****   printf("\n");
 701              		.loc 1 215 3 is_stmt 1 view .LVU191
 702 00ba 0A20     		movs	r0, #10
 703 00bc FFF7FEFF 		bl	putchar
 704              	.LVL73:
 216:Core/Src/indcpa.c ****   printf("noiseseed: ");        
 705              		.loc 1 216 3 view .LVU192
 706 00c0 3448     		ldr	r0, .L62+8
 707 00c2 FFF7FEFF 		bl	printf
 708              	.LVL74:
 217:Core/Src/indcpa.c ****   for (i = 0; i < 32; i++) printf("%02x", noiseseed[i]);
 709              		.loc 1 217 3 view .LVU193
 710              		.loc 1 217 10 is_stmt 0 view .LVU194
 711 00c6 0024     		movs	r4, #0
 712              	.LVL75:
 713              	.L48:
 714              		.loc 1 217 15 is_stmt 1 discriminator 1 view .LVU195
 715              		.loc 1 217 3 is_stmt 0 discriminator 1 view .LVU196
 716 00c8 1F2C     		cmp	r4, #31
 717 00ca 06DC     		bgt	.L61
 718              		.loc 1 217 28 is_stmt 1 discriminator 3 view .LVU197
 719 00cc 08AB     		add	r3, sp, #32
 720              	.LVL76:
 721              		.loc 1 217 28 is_stmt 0 discriminator 3 view .LVU198
 722 00ce 195D     		ldrb	r1, [r3, r4]	@ zero_extendqisi2
 723 00d0 2F48     		ldr	r0, .L62+4
ARM GAS  C:\Users\11410\AppData\Local\Temp\ccbR4jD6.s 			page 19


 724 00d2 FFF7FEFF 		bl	printf
 725              	.LVL77:
 726              		.loc 1 217 23 is_stmt 1 discriminator 3 view .LVU199
 727              		.loc 1 217 24 is_stmt 0 discriminator 3 view .LVU200
 728 00d6 0134     		adds	r4, r4, #1
 729              	.LVL78:
 730              		.loc 1 217 24 discriminator 3 view .LVU201
 731 00d8 F6E7     		b	.L48
 732              	.L61:
 218:Core/Src/indcpa.c ****   gen_a(a, publicseed);
 733              		.loc 1 218 3 is_stmt 1 view .LVU202
 734 00da 0022     		movs	r2, #0
 735 00dc 6946     		mov	r1, sp
 736 00de 0DF59250 		add	r0, sp, #4672
 737 00e2 FFF7FEFF 		bl	gen_matrix
 738              	.LVL79:
 219:Core/Src/indcpa.c **** 
 220:Core/Src/indcpa.c ****   for(i=0;i<KYBER_K;i++)
 739              		.loc 1 220 3 view .LVU203
 192:Core/Src/indcpa.c ****   printf("\n");
 740              		.loc 1 192 17 is_stmt 0 view .LVU204
 741 00e6 0024     		movs	r4, #0
 742              		.loc 1 220 8 view .LVU205
 743 00e8 2746     		mov	r7, r4
 744              		.loc 1 220 3 view .LVU206
 745 00ea 0CE0     		b	.L50
 746              	.LVL80:
 747              	.L51:
 221:Core/Src/indcpa.c ****     poly_getnoise(skpv.vec+i,noiseseed,nonce++);
 748              		.loc 1 221 5 is_stmt 1 discriminator 3 view .LVU207
 749 00ec 04F10108 		add	r8, r4, #1
 750 00f0 5FFA88F8 		uxtb	r8, r8
 751              	.LVL81:
 752              		.loc 1 221 5 is_stmt 0 discriminator 3 view .LVU208
 753 00f4 2246     		mov	r2, r4
 754 00f6 08A9     		add	r1, sp, #32
 755              	.LVL82:
 756              		.loc 1 221 5 discriminator 3 view .LVU209
 757 00f8 10AB     		add	r3, sp, #64
 758 00fa 03EB4720 		add	r0, r3, r7, lsl #9
 759 00fe FFF7FEFF 		bl	poly_getnoise
 760              	.LVL83:
 220:Core/Src/indcpa.c ****     poly_getnoise(skpv.vec+i,noiseseed,nonce++);
 761              		.loc 1 220 21 is_stmt 1 discriminator 3 view .LVU210
 220:Core/Src/indcpa.c ****     poly_getnoise(skpv.vec+i,noiseseed,nonce++);
 762              		.loc 1 220 22 is_stmt 0 discriminator 3 view .LVU211
 763 0102 0137     		adds	r7, r7, #1
 764              	.LVL84:
 765              		.loc 1 221 5 discriminator 3 view .LVU212
 766 0104 4446     		mov	r4, r8
 767              	.LVL85:
 768              	.L50:
 220:Core/Src/indcpa.c ****     poly_getnoise(skpv.vec+i,noiseseed,nonce++);
 769              		.loc 1 220 11 is_stmt 1 discriminator 1 view .LVU213
 220:Core/Src/indcpa.c ****     poly_getnoise(skpv.vec+i,noiseseed,nonce++);
 770              		.loc 1 220 3 is_stmt 0 discriminator 1 view .LVU214
 771 0106 022F     		cmp	r7, #2
ARM GAS  C:\Users\11410\AppData\Local\Temp\ccbR4jD6.s 			page 20


 772 0108 F0DD     		ble	.L51
 222:Core/Src/indcpa.c ****   polyvec_ntt(&skpv);
 773              		.loc 1 222 3 is_stmt 1 view .LVU215
 774 010a 10A8     		add	r0, sp, #64
 775 010c FFF7FEFF 		bl	polyvec_ntt
 776              	.LVL86:
 223:Core/Src/indcpa.c **** 
 224:Core/Src/indcpa.c ****   for(i=0;i<KYBER_K;i++)
 777              		.loc 1 224 3 view .LVU216
 778              		.loc 1 224 8 is_stmt 0 view .LVU217
 779 0110 0027     		movs	r7, #0
 780              		.loc 1 224 3 view .LVU218
 781 0112 0DE0     		b	.L52
 782              	.LVL87:
 783              	.L53:
 225:Core/Src/indcpa.c ****     poly_getnoise(e.vec+i,noiseseed,nonce++);
 784              		.loc 1 225 5 is_stmt 1 discriminator 3 view .LVU219
 785 0114 04F10108 		add	r8, r4, #1
 786 0118 5FFA88F8 		uxtb	r8, r8
 787              	.LVL88:
 788              		.loc 1 225 5 is_stmt 0 discriminator 3 view .LVU220
 789 011c 2246     		mov	r2, r4
 790 011e 08A9     		add	r1, sp, #32
 791              	.LVL89:
 792              		.loc 1 225 5 discriminator 3 view .LVU221
 793 0120 0DF54463 		add	r3, sp, #3136
 794 0124 03EB4720 		add	r0, r3, r7, lsl #9
 795 0128 FFF7FEFF 		bl	poly_getnoise
 796              	.LVL90:
 224:Core/Src/indcpa.c ****     poly_getnoise(e.vec+i,noiseseed,nonce++);
 797              		.loc 1 224 21 is_stmt 1 discriminator 3 view .LVU222
 224:Core/Src/indcpa.c ****     poly_getnoise(e.vec+i,noiseseed,nonce++);
 798              		.loc 1 224 22 is_stmt 0 discriminator 3 view .LVU223
 799 012c 0137     		adds	r7, r7, #1
 800              	.LVL91:
 801              		.loc 1 225 5 discriminator 3 view .LVU224
 802 012e 4446     		mov	r4, r8
 803              	.LVL92:
 804              	.L52:
 224:Core/Src/indcpa.c ****     poly_getnoise(e.vec+i,noiseseed,nonce++);
 805              		.loc 1 224 11 is_stmt 1 discriminator 1 view .LVU225
 224:Core/Src/indcpa.c ****     poly_getnoise(e.vec+i,noiseseed,nonce++);
 806              		.loc 1 224 3 is_stmt 0 discriminator 1 view .LVU226
 807 0130 022F     		cmp	r7, #2
 808 0132 EFDD     		ble	.L53
 226:Core/Src/indcpa.c **** 
 227:Core/Src/indcpa.c ****   // matrix-vector multiplication
 228:Core/Src/indcpa.c ****   for(i=0;i<KYBER_K;i++)
 809              		.loc 1 228 8 view .LVU227
 810 0134 0024     		movs	r4, #0
 811              	.LVL93:
 812              		.loc 1 228 8 view .LVU228
 813 0136 0DE0     		b	.L54
 814              	.LVL94:
 815              	.L55:
 229:Core/Src/indcpa.c ****     polyvec_pointwise_acc(&pkpv.vec[i],&skpv,a+i);
 816              		.loc 1 229 5 is_stmt 1 discriminator 3 view .LVU229
ARM GAS  C:\Users\11410\AppData\Local\Temp\ccbR4jD6.s 			page 21


 817              		.loc 1 229 47 is_stmt 0 discriminator 3 view .LVU230
 818 0138 04EB4402 		add	r2, r4, r4, lsl #1
 819              		.loc 1 229 5 discriminator 3 view .LVU231
 820 013c 0DF59253 		add	r3, sp, #4672
 821 0140 03EB4222 		add	r2, r3, r2, lsl #9
 822 0144 10A9     		add	r1, sp, #64
 823 0146 0DF5C863 		add	r3, sp, #1600
 824 014a 03EB4420 		add	r0, r3, r4, lsl #9
 825 014e FFF7FEFF 		bl	polyvec_pointwise_acc
 826              	.LVL95:
 228:Core/Src/indcpa.c ****     polyvec_pointwise_acc(&pkpv.vec[i],&skpv,a+i);
 827              		.loc 1 228 21 is_stmt 1 discriminator 3 view .LVU232
 228:Core/Src/indcpa.c ****     polyvec_pointwise_acc(&pkpv.vec[i],&skpv,a+i);
 828              		.loc 1 228 22 is_stmt 0 discriminator 3 view .LVU233
 829 0152 0134     		adds	r4, r4, #1
 830              	.LVL96:
 831              	.L54:
 228:Core/Src/indcpa.c ****     polyvec_pointwise_acc(&pkpv.vec[i],&skpv,a+i);
 832              		.loc 1 228 11 is_stmt 1 discriminator 1 view .LVU234
 228:Core/Src/indcpa.c ****     polyvec_pointwise_acc(&pkpv.vec[i],&skpv,a+i);
 833              		.loc 1 228 3 is_stmt 0 discriminator 1 view .LVU235
 834 0154 022C     		cmp	r4, #2
 835 0156 EFDD     		ble	.L55
 230:Core/Src/indcpa.c ****   polyvec_invntt(&pkpv);
 836              		.loc 1 230 3 is_stmt 1 view .LVU236
 837 0158 0DF5C860 		add	r0, sp, #1600
 838 015c FFF7FEFF 		bl	polyvec_invntt
 839              	.LVL97:
 231:Core/Src/indcpa.c ****   polyvec_add(&pkpv,&pkpv,&e);
 840              		.loc 1 231 3 view .LVU237
 841 0160 0DF54462 		add	r2, sp, #3136
 842 0164 0DF5C861 		add	r1, sp, #1600
 843 0168 0846     		mov	r0, r1
 844 016a FFF7FEFF 		bl	polyvec_add
 845              	.LVL98:
 232:Core/Src/indcpa.c **** 
 233:Core/Src/indcpa.c ****   pack_sk(sk, &skpv);
 846              		.loc 1 233 3 view .LVU238
 847 016e 10A9     		add	r1, sp, #64
 848 0170 3046     		mov	r0, r6
 849 0172 FFF7FEFF 		bl	pack_sk
 850              	.LVL99:
 234:Core/Src/indcpa.c ****   pack_pk(pk, &pkpv, publicseed);
 851              		.loc 1 234 3 view .LVU239
 852 0176 6A46     		mov	r2, sp
 853 0178 0DF5C861 		add	r1, sp, #1600
 854 017c 2846     		mov	r0, r5
 855 017e FFF7FEFF 		bl	pack_pk
 856              	.LVL100:
 235:Core/Src/indcpa.c **** }
 857              		.loc 1 235 1 is_stmt 0 view .LVU240
 858 0182 0DF5115D 		add	sp, sp, #9280
 859              	.LCFI13:
 860              		.cfi_def_cfa_offset 24
 861              	.LVL101:
 862              		.loc 1 235 1 view .LVU241
 863              		@ sp needed
ARM GAS  C:\Users\11410\AppData\Local\Temp\ccbR4jD6.s 			page 22


 864 0186 BDE8F081 		pop	{r4, r5, r6, r7, r8, pc}
 865              	.LVL102:
 866              	.L63:
 867              		.loc 1 235 1 view .LVU242
 868 018a 00BF     		.align	2
 869              	.L62:
 870 018c 00000000 		.word	.LC0
 871 0190 10000000 		.word	.LC1
 872 0194 18000000 		.word	.LC2
 873              		.cfi_endproc
 874              	.LFE7:
 876              		.section	.text.indcpa_enc,"ax",%progbits
 877              		.align	1
 878              		.global	indcpa_enc
 879              		.syntax unified
 880              		.thumb
 881              		.thumb_func
 882              		.fpu fpv4-sp-d16
 884              	indcpa_enc:
 885              	.LVL103:
 886              	.LFB8:
 236:Core/Src/indcpa.c **** 
 237:Core/Src/indcpa.c **** 
 238:Core/Src/indcpa.c **** /*************************************************
 239:Core/Src/indcpa.c **** * Name:        indcpa_enc
 240:Core/Src/indcpa.c **** * 
 241:Core/Src/indcpa.c **** * Description: Encryption function of the CPA-secure 
 242:Core/Src/indcpa.c **** *              public-key encryption scheme underlying Kyber.
 243:Core/Src/indcpa.c **** *
 244:Core/Src/indcpa.c **** * Arguments:   - unsigned char *c:          pointer to output ciphertext
 245:Core/Src/indcpa.c **** *              - const unsigned char *m:    pointer to input message (of length KYBER_SYMBYTES byte
 246:Core/Src/indcpa.c **** *              - const unsigned char *pk:   pointer to input public key
 247:Core/Src/indcpa.c **** *              - const unsigned char *coin: pointer to input random coins used as seed
 248:Core/Src/indcpa.c **** *                                           to deterministically generate all randomness
 249:Core/Src/indcpa.c **** **************************************************/
 250:Core/Src/indcpa.c **** void indcpa_enc(unsigned char *c,
 251:Core/Src/indcpa.c ****                const unsigned char *m,
 252:Core/Src/indcpa.c ****                const unsigned char *pk,
 253:Core/Src/indcpa.c ****                const unsigned char *coins)
 254:Core/Src/indcpa.c **** {
 887              		.loc 1 254 1 is_stmt 1 view -0
 888              		.cfi_startproc
 889              		@ args = 0, pretend = 0, frame = 12320
 890              		@ frame_needed = 0, uses_anonymous_args = 0
 891              		.loc 1 254 1 is_stmt 0 view .LVU244
 892 0000 2DE9F041 		push	{r4, r5, r6, r7, r8, lr}
 893              	.LCFI14:
 894              		.cfi_def_cfa_offset 24
 895              		.cfi_offset 4, -24
 896              		.cfi_offset 5, -20
 897              		.cfi_offset 6, -16
 898              		.cfi_offset 7, -12
 899              		.cfi_offset 8, -8
 900              		.cfi_offset 14, -4
 901 0004 ADF5405D 		sub	sp, sp, #12288
 902              	.LCFI15:
 903              		.cfi_def_cfa_offset 12312
ARM GAS  C:\Users\11410\AppData\Local\Temp\ccbR4jD6.s 			page 23


 904 0008 88B0     		sub	sp, sp, #32
 905              	.LCFI16:
 906              		.cfi_def_cfa_offset 12344
 907 000a 8046     		mov	r8, r0
 908 000c 0C46     		mov	r4, r1
 909 000e 1F46     		mov	r7, r3
 255:Core/Src/indcpa.c ****   polyvec sp, pkpv, ep, at[KYBER_K], bp;
 910              		.loc 1 255 3 is_stmt 1 view .LVU245
 256:Core/Src/indcpa.c ****   poly v, k, epp;
 911              		.loc 1 256 3 view .LVU246
 257:Core/Src/indcpa.c ****   unsigned char seed[KYBER_SYMBYTES];
 912              		.loc 1 257 3 view .LVU247
 258:Core/Src/indcpa.c ****   int i;
 913              		.loc 1 258 3 view .LVU248
 259:Core/Src/indcpa.c ****   unsigned char nonce=0;
 914              		.loc 1 259 3 view .LVU249
 915              	.LVL104:
 260:Core/Src/indcpa.c **** 
 261:Core/Src/indcpa.c **** 
 262:Core/Src/indcpa.c ****   unpack_pk(&pkpv, seed, pk);
 916              		.loc 1 262 3 view .LVU250
 917 0010 6946     		mov	r1, sp
 918              	.LVL105:
 919              		.loc 1 262 3 is_stmt 0 view .LVU251
 920 0012 0DF51050 		add	r0, sp, #9216
 921              	.LVL106:
 922              		.loc 1 262 3 view .LVU252
 923 0016 2030     		adds	r0, r0, #32
 924 0018 FFF7FEFF 		bl	unpack_pk
 925              	.LVL107:
 263:Core/Src/indcpa.c **** 
 264:Core/Src/indcpa.c ****   poly_frommsg(&k, m);
 926              		.loc 1 264 3 is_stmt 1 view .LVU253
 927 001c 2146     		mov	r1, r4
 928 001e 88A8     		add	r0, sp, #544
 929 0020 FFF7FEFF 		bl	poly_frommsg
 930              	.LVL108:
 265:Core/Src/indcpa.c **** 
 266:Core/Src/indcpa.c ****   polyvec_ntt(&pkpv);
 931              		.loc 1 266 3 view .LVU254
 932 0024 0DF51050 		add	r0, sp, #9216
 933 0028 2030     		adds	r0, r0, #32
 934 002a FFF7FEFF 		bl	polyvec_ntt
 935              	.LVL109:
 267:Core/Src/indcpa.c **** 
 268:Core/Src/indcpa.c ****   gen_at(at, seed);
 936              		.loc 1 268 3 view .LVU255
 937 002e 0122     		movs	r2, #1
 938 0030 6946     		mov	r1, sp
 939 0032 0DF54260 		add	r0, sp, #3104
 940 0036 FFF7FEFF 		bl	gen_matrix
 941              	.LVL110:
 269:Core/Src/indcpa.c **** 
 270:Core/Src/indcpa.c ****   for(i=0;i<KYBER_K;i++)
 942              		.loc 1 270 3 view .LVU256
 259:Core/Src/indcpa.c **** 
 943              		.loc 1 259 17 is_stmt 0 view .LVU257
ARM GAS  C:\Users\11410\AppData\Local\Temp\ccbR4jD6.s 			page 24


 944 003a 0024     		movs	r4, #0
 945              	.LVL111:
 946              		.loc 1 270 8 view .LVU258
 947 003c 2546     		mov	r5, r4
 948              		.loc 1 270 3 view .LVU259
 949 003e 0CE0     		b	.L65
 950              	.LVL112:
 951              	.L66:
 271:Core/Src/indcpa.c ****     poly_getnoise(sp.vec+i,coins,nonce++);
 952              		.loc 1 271 5 is_stmt 1 discriminator 3 view .LVU260
 953 0040 661C     		adds	r6, r4, #1
 954 0042 F6B2     		uxtb	r6, r6
 955              	.LVL113:
 956              		.loc 1 271 5 is_stmt 0 discriminator 3 view .LVU261
 957 0044 2246     		mov	r2, r4
 958 0046 3946     		mov	r1, r7
 959 0048 0DF52853 		add	r3, sp, #10752
 960 004c 2033     		adds	r3, r3, #32
 961 004e 03EB4520 		add	r0, r3, r5, lsl #9
 962 0052 FFF7FEFF 		bl	poly_getnoise
 963              	.LVL114:
 270:Core/Src/indcpa.c ****     poly_getnoise(sp.vec+i,coins,nonce++);
 964              		.loc 1 270 21 is_stmt 1 discriminator 3 view .LVU262
 270:Core/Src/indcpa.c ****     poly_getnoise(sp.vec+i,coins,nonce++);
 965              		.loc 1 270 22 is_stmt 0 discriminator 3 view .LVU263
 966 0056 0135     		adds	r5, r5, #1
 967              	.LVL115:
 968              		.loc 1 271 5 discriminator 3 view .LVU264
 969 0058 3446     		mov	r4, r6
 970              	.LVL116:
 971              	.L65:
 270:Core/Src/indcpa.c ****     poly_getnoise(sp.vec+i,coins,nonce++);
 972              		.loc 1 270 11 is_stmt 1 discriminator 1 view .LVU265
 270:Core/Src/indcpa.c ****     poly_getnoise(sp.vec+i,coins,nonce++);
 973              		.loc 1 270 3 is_stmt 0 discriminator 1 view .LVU266
 974 005a 022D     		cmp	r5, #2
 975 005c F0DD     		ble	.L66
 272:Core/Src/indcpa.c **** 
 273:Core/Src/indcpa.c ****   polyvec_ntt(&sp);
 976              		.loc 1 273 3 is_stmt 1 view .LVU267
 977 005e 0DF52850 		add	r0, sp, #10752
 978 0062 2030     		adds	r0, r0, #32
 979 0064 FFF7FEFF 		bl	polyvec_ntt
 980              	.LVL117:
 274:Core/Src/indcpa.c **** 
 275:Core/Src/indcpa.c ****   for(i=0;i<KYBER_K;i++)
 981              		.loc 1 275 3 view .LVU268
 982              		.loc 1 275 8 is_stmt 0 view .LVU269
 983 0068 0025     		movs	r5, #0
 984              		.loc 1 275 3 view .LVU270
 985 006a 0BE0     		b	.L67
 986              	.LVL118:
 987              	.L68:
 276:Core/Src/indcpa.c ****     poly_getnoise(ep.vec+i,coins,nonce++);
 988              		.loc 1 276 5 is_stmt 1 discriminator 3 view .LVU271
 989 006c 661C     		adds	r6, r4, #1
 990 006e F6B2     		uxtb	r6, r6
ARM GAS  C:\Users\11410\AppData\Local\Temp\ccbR4jD6.s 			page 25


 991              	.LVL119:
 992              		.loc 1 276 5 is_stmt 0 discriminator 3 view .LVU272
 993 0070 2246     		mov	r2, r4
 994 0072 3946     		mov	r1, r7
 995 0074 0DF5F153 		add	r3, sp, #7712
 996 0078 03EB4520 		add	r0, r3, r5, lsl #9
 997 007c FFF7FEFF 		bl	poly_getnoise
 998              	.LVL120:
 275:Core/Src/indcpa.c ****     poly_getnoise(ep.vec+i,coins,nonce++);
 999              		.loc 1 275 21 is_stmt 1 discriminator 3 view .LVU273
 275:Core/Src/indcpa.c ****     poly_getnoise(ep.vec+i,coins,nonce++);
 1000              		.loc 1 275 22 is_stmt 0 discriminator 3 view .LVU274
 1001 0080 0135     		adds	r5, r5, #1
 1002              	.LVL121:
 1003              		.loc 1 276 5 discriminator 3 view .LVU275
 1004 0082 3446     		mov	r4, r6
 1005              	.LVL122:
 1006              	.L67:
 275:Core/Src/indcpa.c ****     poly_getnoise(ep.vec+i,coins,nonce++);
 1007              		.loc 1 275 11 is_stmt 1 discriminator 1 view .LVU276
 275:Core/Src/indcpa.c ****     poly_getnoise(ep.vec+i,coins,nonce++);
 1008              		.loc 1 275 3 is_stmt 0 discriminator 1 view .LVU277
 1009 0084 022D     		cmp	r5, #2
 1010 0086 F1DD     		ble	.L68
 277:Core/Src/indcpa.c **** 
 278:Core/Src/indcpa.c ****   // matrix-vector multiplication
 279:Core/Src/indcpa.c ****   for(i=0;i<KYBER_K;i++)
 1011              		.loc 1 279 8 view .LVU278
 1012 0088 0025     		movs	r5, #0
 1013              	.LVL123:
 1014              		.loc 1 279 8 view .LVU279
 1015 008a 0FE0     		b	.L69
 1016              	.LVL124:
 1017              	.L70:
 280:Core/Src/indcpa.c ****     polyvec_pointwise_acc(&bp.vec[i],&sp,at+i);
 1018              		.loc 1 280 5 is_stmt 1 discriminator 3 view .LVU280
 1019              		.loc 1 280 44 is_stmt 0 discriminator 3 view .LVU281
 1020 008c 05EB4502 		add	r2, r5, r5, lsl #1
 1021              		.loc 1 280 5 discriminator 3 view .LVU282
 1022 0090 0DF54263 		add	r3, sp, #3104
 1023 0094 03EB4222 		add	r2, r3, r2, lsl #9
 1024 0098 0DF52851 		add	r1, sp, #10752
 1025 009c 2031     		adds	r1, r1, #32
 1026 009e 0DF5C463 		add	r3, sp, #1568
 1027 00a2 03EB4520 		add	r0, r3, r5, lsl #9
 1028 00a6 FFF7FEFF 		bl	polyvec_pointwise_acc
 1029              	.LVL125:
 279:Core/Src/indcpa.c ****     polyvec_pointwise_acc(&bp.vec[i],&sp,at+i);
 1030              		.loc 1 279 21 is_stmt 1 discriminator 3 view .LVU283
 279:Core/Src/indcpa.c ****     polyvec_pointwise_acc(&bp.vec[i],&sp,at+i);
 1031              		.loc 1 279 22 is_stmt 0 discriminator 3 view .LVU284
 1032 00aa 0135     		adds	r5, r5, #1
 1033              	.LVL126:
 1034              	.L69:
 279:Core/Src/indcpa.c ****     polyvec_pointwise_acc(&bp.vec[i],&sp,at+i);
 1035              		.loc 1 279 11 is_stmt 1 discriminator 1 view .LVU285
 279:Core/Src/indcpa.c ****     polyvec_pointwise_acc(&bp.vec[i],&sp,at+i);
ARM GAS  C:\Users\11410\AppData\Local\Temp\ccbR4jD6.s 			page 26


 1036              		.loc 1 279 3 is_stmt 0 discriminator 1 view .LVU286
 1037 00ac 022D     		cmp	r5, #2
 1038 00ae EDDD     		ble	.L70
 281:Core/Src/indcpa.c **** 
 282:Core/Src/indcpa.c ****   polyvec_invntt(&bp);
 1039              		.loc 1 282 3 is_stmt 1 view .LVU287
 1040 00b0 0DF5C460 		add	r0, sp, #1568
 1041 00b4 FFF7FEFF 		bl	polyvec_invntt
 1042              	.LVL127:
 283:Core/Src/indcpa.c ****   polyvec_add(&bp, &bp, &ep);
 1043              		.loc 1 283 3 view .LVU288
 1044 00b8 0DF5F152 		add	r2, sp, #7712
 1045 00bc 0DF5C461 		add	r1, sp, #1568
 1046 00c0 0846     		mov	r0, r1
 1047 00c2 FFF7FEFF 		bl	polyvec_add
 1048              	.LVL128:
 284:Core/Src/indcpa.c ****  
 285:Core/Src/indcpa.c ****   polyvec_pointwise_acc(&v, &pkpv, &sp);
 1049              		.loc 1 285 3 view .LVU289
 1050 00c6 0DF52852 		add	r2, sp, #10752
 1051 00ca 2032     		adds	r2, r2, #32
 1052 00cc 0DF51051 		add	r1, sp, #9216
 1053 00d0 2031     		adds	r1, r1, #32
 1054 00d2 0DF58460 		add	r0, sp, #1056
 1055 00d6 FFF7FEFF 		bl	polyvec_pointwise_acc
 1056              	.LVL129:
 286:Core/Src/indcpa.c ****   poly_invntt(&v);
 1057              		.loc 1 286 3 view .LVU290
 1058 00da 0DF58460 		add	r0, sp, #1056
 1059 00de FFF7FEFF 		bl	poly_invntt
 1060              	.LVL130:
 287:Core/Src/indcpa.c **** 
 288:Core/Src/indcpa.c ****   poly_getnoise(&epp,coins,nonce++);
 1061              		.loc 1 288 3 view .LVU291
 1062              		.loc 1 288 3 is_stmt 0 view .LVU292
 1063 00e2 2246     		mov	r2, r4
 1064 00e4 3946     		mov	r1, r7
 1065 00e6 08A8     		add	r0, sp, #32
 1066 00e8 FFF7FEFF 		bl	poly_getnoise
 1067              	.LVL131:
 289:Core/Src/indcpa.c **** 
 290:Core/Src/indcpa.c ****   poly_add(&v, &v, &epp);
 1068              		.loc 1 290 3 is_stmt 1 view .LVU293
 1069 00ec 08AA     		add	r2, sp, #32
 1070 00ee 0DF58461 		add	r1, sp, #1056
 1071 00f2 0846     		mov	r0, r1
 1072 00f4 FFF7FEFF 		bl	poly_add
 1073              	.LVL132:
 291:Core/Src/indcpa.c ****   poly_add(&v, &v, &k);
 1074              		.loc 1 291 3 view .LVU294
 1075 00f8 88AA     		add	r2, sp, #544
 1076 00fa 0DF58461 		add	r1, sp, #1056
 1077 00fe 0846     		mov	r0, r1
 1078 0100 FFF7FEFF 		bl	poly_add
 1079              	.LVL133:
 292:Core/Src/indcpa.c **** 
 293:Core/Src/indcpa.c ****   pack_ciphertext(c, &bp, &v);
ARM GAS  C:\Users\11410\AppData\Local\Temp\ccbR4jD6.s 			page 27


 1080              		.loc 1 293 3 view .LVU295
 1081 0104 0DF58462 		add	r2, sp, #1056
 1082 0108 0DF5C461 		add	r1, sp, #1568
 1083 010c 4046     		mov	r0, r8
 1084 010e FFF7FEFF 		bl	pack_ciphertext
 1085              	.LVL134:
 294:Core/Src/indcpa.c **** }
 1086              		.loc 1 294 1 is_stmt 0 view .LVU296
 1087 0112 0DF5405D 		add	sp, sp, #12288
 1088 0116 08B0     		add	sp, sp, #32
 1089              	.LCFI17:
 1090              		.cfi_def_cfa_offset 24
 1091              		@ sp needed
 1092 0118 BDE8F081 		pop	{r4, r5, r6, r7, r8, pc}
 1093              		.loc 1 294 1 view .LVU297
 1094              		.cfi_endproc
 1095              	.LFE8:
 1097              		.section	.text.indcpa_dec,"ax",%progbits
 1098              		.align	1
 1099              		.global	indcpa_dec
 1100              		.syntax unified
 1101              		.thumb
 1102              		.thumb_func
 1103              		.fpu fpv4-sp-d16
 1105              	indcpa_dec:
 1106              	.LVL135:
 1107              	.LFB9:
 295:Core/Src/indcpa.c **** 
 296:Core/Src/indcpa.c **** /*************************************************
 297:Core/Src/indcpa.c **** * Name:        indcpa_dec
 298:Core/Src/indcpa.c **** * 
 299:Core/Src/indcpa.c **** * Description: Decryption function of the CPA-secure 
 300:Core/Src/indcpa.c **** *              public-key encryption scheme underlying Kyber.
 301:Core/Src/indcpa.c **** *
 302:Core/Src/indcpa.c **** * Arguments:   - unsigned char *m:        pointer to output decrypted message
 303:Core/Src/indcpa.c **** *              - const unsigned char *c:  pointer to input ciphertext
 304:Core/Src/indcpa.c **** *              - const unsigned char *sk: pointer to input secret key
 305:Core/Src/indcpa.c **** **************************************************/
 306:Core/Src/indcpa.c **** void indcpa_dec(unsigned char *m,
 307:Core/Src/indcpa.c ****                const unsigned char *c,
 308:Core/Src/indcpa.c ****                const unsigned char *sk)
 309:Core/Src/indcpa.c **** {
 1108              		.loc 1 309 1 is_stmt 1 view -0
 1109              		.cfi_startproc
 1110              		@ args = 0, pretend = 0, frame = 4096
 1111              		@ frame_needed = 0, uses_anonymous_args = 0
 1112              		.loc 1 309 1 is_stmt 0 view .LVU299
 1113 0000 30B5     		push	{r4, r5, lr}
 1114              	.LCFI18:
 1115              		.cfi_def_cfa_offset 12
 1116              		.cfi_offset 4, -12
 1117              		.cfi_offset 5, -8
 1118              		.cfi_offset 14, -4
 1119 0002 ADF5805D 		sub	sp, sp, #4096
 1120              	.LCFI19:
 1121              		.cfi_def_cfa_offset 4108
 1122 0006 81B0     		sub	sp, sp, #4
ARM GAS  C:\Users\11410\AppData\Local\Temp\ccbR4jD6.s 			page 28


 1123              	.LCFI20:
 1124              		.cfi_def_cfa_offset 4112
 1125 0008 0446     		mov	r4, r0
 1126 000a 1546     		mov	r5, r2
 310:Core/Src/indcpa.c ****   polyvec bp, skpv;
 1127              		.loc 1 310 3 is_stmt 1 view .LVU300
 311:Core/Src/indcpa.c ****   poly v, mp;
 1128              		.loc 1 311 3 view .LVU301
 312:Core/Src/indcpa.c **** 
 313:Core/Src/indcpa.c ****   unpack_ciphertext(&bp, &v, c);
 1129              		.loc 1 313 3 view .LVU302
 1130 000c 0A46     		mov	r2, r1
 1131              	.LVL136:
 1132              		.loc 1 313 3 is_stmt 0 view .LVU303
 1133 000e 80A9     		add	r1, sp, #512
 1134              	.LVL137:
 1135              		.loc 1 313 3 view .LVU304
 1136 0010 0DF52060 		add	r0, sp, #2560
 1137              	.LVL138:
 1138              		.loc 1 313 3 view .LVU305
 1139 0014 FFF7FEFF 		bl	unpack_ciphertext
 1140              	.LVL139:
 314:Core/Src/indcpa.c ****   unpack_sk(&skpv, sk);
 1141              		.loc 1 314 3 is_stmt 1 view .LVU306
 1142 0018 2946     		mov	r1, r5
 1143 001a 0DF58060 		add	r0, sp, #1024
 1144 001e FFF7FEFF 		bl	unpack_sk
 1145              	.LVL140:
 315:Core/Src/indcpa.c **** 
 316:Core/Src/indcpa.c ****   polyvec_ntt(&bp);
 1146              		.loc 1 316 3 view .LVU307
 1147 0022 0DF52060 		add	r0, sp, #2560
 1148 0026 FFF7FEFF 		bl	polyvec_ntt
 1149              	.LVL141:
 317:Core/Src/indcpa.c **** 
 318:Core/Src/indcpa.c ****   polyvec_pointwise_acc(&mp,&skpv,&bp);
 1150              		.loc 1 318 3 view .LVU308
 1151 002a 0DF52062 		add	r2, sp, #2560
 1152 002e 0DF58061 		add	r1, sp, #1024
 1153 0032 6846     		mov	r0, sp
 1154 0034 FFF7FEFF 		bl	polyvec_pointwise_acc
 1155              	.LVL142:
 319:Core/Src/indcpa.c ****   poly_invntt(&mp);
 1156              		.loc 1 319 3 view .LVU309
 1157 0038 6846     		mov	r0, sp
 1158 003a FFF7FEFF 		bl	poly_invntt
 1159              	.LVL143:
 320:Core/Src/indcpa.c **** 
 321:Core/Src/indcpa.c ****   poly_sub(&mp, &mp, &v);
 1160              		.loc 1 321 3 view .LVU310
 1161 003e 80AA     		add	r2, sp, #512
 1162 0040 6946     		mov	r1, sp
 1163 0042 6846     		mov	r0, sp
 1164 0044 FFF7FEFF 		bl	poly_sub
 1165              	.LVL144:
 322:Core/Src/indcpa.c **** 
 323:Core/Src/indcpa.c ****   poly_tomsg(m, &mp);
ARM GAS  C:\Users\11410\AppData\Local\Temp\ccbR4jD6.s 			page 29


 1166              		.loc 1 323 3 view .LVU311
 1167 0048 6946     		mov	r1, sp
 1168 004a 2046     		mov	r0, r4
 1169 004c FFF7FEFF 		bl	poly_tomsg
 1170              	.LVL145:
 324:Core/Src/indcpa.c **** }
 1171              		.loc 1 324 1 is_stmt 0 view .LVU312
 1172 0050 0DF5805D 		add	sp, sp, #4096
 1173 0054 01B0     		add	sp, sp, #4
 1174              	.LCFI21:
 1175              		.cfi_def_cfa_offset 12
 1176              		@ sp needed
 1177 0056 30BD     		pop	{r4, r5, pc}
 1178              		.loc 1 324 1 view .LVU313
 1179              		.cfi_endproc
 1180              	.LFE9:
 1182              		.text
 1183              	.Letext0:
 1184              		.file 2 "c:\\program files (x86)\\gnu tools arm embedded\\9 2019-q4-major\\arm-none-eabi\\include\
 1185              		.file 3 "c:\\program files (x86)\\gnu tools arm embedded\\9 2019-q4-major\\arm-none-eabi\\include\
 1186              		.file 4 "c:\\program files (x86)\\gnu tools arm embedded\\9 2019-q4-major\\arm-none-eabi\\include\
 1187              		.file 5 "c:\\program files (x86)\\gnu tools arm embedded\\9 2019-q4-major\\lib\\gcc\\arm-none-eabi
 1188              		.file 6 "c:\\program files (x86)\\gnu tools arm embedded\\9 2019-q4-major\\arm-none-eabi\\include\
 1189              		.file 7 "c:\\program files (x86)\\gnu tools arm embedded\\9 2019-q4-major\\arm-none-eabi\\include\
 1190              		.file 8 "Core/Inc/poly.h"
 1191              		.file 9 "Core/Inc/polyvec.h"
 1192              		.file 10 "<built-in>"
 1193              		.file 11 "Core/Inc/randombytes.h"
 1194              		.file 12 "Core/Inc/fips202.h"
ARM GAS  C:\Users\11410\AppData\Local\Temp\ccbR4jD6.s 			page 30

