ARM GAS  C:\Users\11410\AppData\Local\Temp\ccEN7EhN.s 			page 1


   1              		.cpu cortex-m4
   2              		.eabi_attribute 27, 1
   3              		.eabi_attribute 28, 1
   4              		.eabi_attribute 20, 1
   5              		.eabi_attribute 21, 1
   6              		.eabi_attribute 23, 3
   7              		.eabi_attribute 24, 1
   8              		.eabi_attribute 25, 1
   9              		.eabi_attribute 26, 1
  10              		.eabi_attribute 30, 1
  11              		.eabi_attribute 34, 1
  12              		.eabi_attribute 18, 4
  13              		.file	"kem.c"
  14              		.text
  15              	.Ltext0:
  16              		.cfi_sections	.debug_frame
  17              		.section	.text.crypto_kem_keypair,"ax",%progbits
  18              		.align	1
  19              		.global	crypto_kem_keypair
  20              		.arch armv7e-m
  21              		.syntax unified
  22              		.thumb
  23              		.thumb_func
  24              		.fpu fpv4-sp-d16
  26              	crypto_kem_keypair:
  27              	.LVL0:
  28              	.LFB133:
  29              		.file 1 "Core/Src/kem.c"
   1:Core/Src/kem.c **** #include "api.h"
   2:Core/Src/kem.c **** #include "randombytes.h"
   3:Core/Src/kem.c **** #include "fips202.h"
   4:Core/Src/kem.c **** #include "params.h"
   5:Core/Src/kem.c **** #include "verify.h"
   6:Core/Src/kem.c **** #include "indcpa.h"
   7:Core/Src/kem.c **** 
   8:Core/Src/kem.c **** #include "gpio.h"
   9:Core/Src/kem.c **** /*************************************************
  10:Core/Src/kem.c **** * Name:        crypto_kem_keypair
  11:Core/Src/kem.c **** *
  12:Core/Src/kem.c **** * Description: Generates public and private key
  13:Core/Src/kem.c **** *              for CCA-secure Kyber key encapsulation mechanism
  14:Core/Src/kem.c **** *
  15:Core/Src/kem.c **** * Arguments:   - unsigned char *pk: pointer to output public key (an already allocated array of CRY
  16:Core/Src/kem.c **** *              - unsigned char *sk: pointer to output private key (an already allocated array of CR
  17:Core/Src/kem.c **** *
  18:Core/Src/kem.c **** * Returns 0 (success)
  19:Core/Src/kem.c **** **************************************************/
  20:Core/Src/kem.c **** int crypto_kem_keypair(unsigned char *pk, unsigned char *sk)
  21:Core/Src/kem.c **** {
  30              		.loc 1 21 1 view -0
  31              		.cfi_startproc
  32              		@ args = 0, pretend = 0, frame = 0
  33              		@ frame_needed = 0, uses_anonymous_args = 0
  34              		.loc 1 21 1 is_stmt 0 view .LVU1
  35 0000 70B5     		push	{r4, r5, r6, lr}
  36              	.LCFI0:
  37              		.cfi_def_cfa_offset 16
ARM GAS  C:\Users\11410\AppData\Local\Temp\ccEN7EhN.s 			page 2


  38              		.cfi_offset 4, -16
  39              		.cfi_offset 5, -12
  40              		.cfi_offset 6, -8
  41              		.cfi_offset 14, -4
  42 0002 0646     		mov	r6, r0
  43 0004 0D46     		mov	r5, r1
  22:Core/Src/kem.c ****   size_t i;
  44              		.loc 1 22 3 is_stmt 1 view .LVU2
  23:Core/Src/kem.c **** /*********************************************************/
  24:Core/Src/kem.c ****   indcpa_keypair(pk, sk);
  45              		.loc 1 24 3 view .LVU3
  46 0006 FFF7FEFF 		bl	indcpa_keypair
  47              	.LVL1:
  25:Core/Src/kem.c **** /*********************************************************/
  26:Core/Src/kem.c ****   for(i=0;i<KYBER_INDCPA_PUBLICKEYBYTES;i++)
  48              		.loc 1 26 3 view .LVU4
  49              		.loc 1 26 8 is_stmt 0 view .LVU5
  50 000a 0023     		movs	r3, #0
  51              	.LVL2:
  52              	.L2:
  53              		.loc 1 26 11 is_stmt 1 discriminator 1 view .LVU6
  54              		.loc 1 26 3 is_stmt 0 discriminator 1 view .LVU7
  55 000c B3F5886F 		cmp	r3, #1088
  56 0010 05D2     		bcs	.L5
  27:Core/Src/kem.c ****     sk[i+KYBER_INDCPA_SECRETKEYBYTES] = pk[i];
  57              		.loc 1 27 5 is_stmt 1 discriminator 3 view .LVU8
  58              		.loc 1 27 7 is_stmt 0 discriminator 3 view .LVU9
  59 0012 03F59C62 		add	r2, r3, #1248
  60              		.loc 1 27 43 discriminator 3 view .LVU10
  61 0016 F45C     		ldrb	r4, [r6, r3]	@ zero_extendqisi2
  62              		.loc 1 27 39 discriminator 3 view .LVU11
  63 0018 AC54     		strb	r4, [r5, r2]
  26:Core/Src/kem.c ****     sk[i+KYBER_INDCPA_SECRETKEYBYTES] = pk[i];
  64              		.loc 1 26 41 is_stmt 1 discriminator 3 view .LVU12
  26:Core/Src/kem.c ****     sk[i+KYBER_INDCPA_SECRETKEYBYTES] = pk[i];
  65              		.loc 1 26 42 is_stmt 0 discriminator 3 view .LVU13
  66 001a 0133     		adds	r3, r3, #1
  67              	.LVL3:
  26:Core/Src/kem.c ****     sk[i+KYBER_INDCPA_SECRETKEYBYTES] = pk[i];
  68              		.loc 1 26 42 discriminator 3 view .LVU14
  69 001c F6E7     		b	.L2
  70              	.L5:
  28:Core/Src/kem.c ****   sha3_256(sk+KYBER_SECRETKEYBYTES-2*KYBER_SYMBYTES,pk,KYBER_PUBLICKEYBYTES);
  71              		.loc 1 28 3 is_stmt 1 view .LVU15
  72 001e 4FF48862 		mov	r2, #1088
  73 0022 0023     		movs	r3, #0
  74              	.LVL4:
  75              		.loc 1 28 3 is_stmt 0 view .LVU16
  76 0024 3146     		mov	r1, r6
  77 0026 05F51260 		add	r0, r5, #2336
  78 002a FFF7FEFF 		bl	sha3_256
  79              	.LVL5:
  29:Core/Src/kem.c ****   randombytes(sk+KYBER_SECRETKEYBYTES-KYBER_SYMBYTES,KYBER_SYMBYTES);         /* Value z for pseudo
  80              		.loc 1 29 3 is_stmt 1 view .LVU17
  81 002e 2022     		movs	r2, #32
  82 0030 0023     		movs	r3, #0
  83 0032 05F51460 		add	r0, r5, #2368
ARM GAS  C:\Users\11410\AppData\Local\Temp\ccEN7EhN.s 			page 3


  84 0036 FFF7FEFF 		bl	randombytes
  85              	.LVL6:
  30:Core/Src/kem.c **** /*********************************************************/
  31:Core/Src/kem.c ****   return 0;
  86              		.loc 1 31 3 view .LVU18
  32:Core/Src/kem.c **** }
  87              		.loc 1 32 1 is_stmt 0 view .LVU19
  88 003a 0020     		movs	r0, #0
  89 003c 70BD     		pop	{r4, r5, r6, pc}
  90              		.loc 1 32 1 view .LVU20
  91              		.cfi_endproc
  92              	.LFE133:
  94              		.section	.text.crypto_kem_enc,"ax",%progbits
  95              		.align	1
  96              		.global	crypto_kem_enc
  97              		.syntax unified
  98              		.thumb
  99              		.thumb_func
 100              		.fpu fpv4-sp-d16
 102              	crypto_kem_enc:
 103              	.LVL7:
 104              	.LFB134:
  33:Core/Src/kem.c **** 
  34:Core/Src/kem.c **** /*************************************************
  35:Core/Src/kem.c **** * Name:        crypto_kem_enc
  36:Core/Src/kem.c **** *
  37:Core/Src/kem.c **** * Description: Generates cipher text and shared
  38:Core/Src/kem.c **** *              secret for given public key
  39:Core/Src/kem.c **** *
  40:Core/Src/kem.c **** * Arguments:   - unsigned char *ct:       pointer to output cipher text (an already allocated array
  41:Core/Src/kem.c **** *              - unsigned char *ss:       pointer to output shared secret (an already allocated arr
  42:Core/Src/kem.c **** *              - const unsigned char *pk: pointer to input public key (an already allocated array o
  43:Core/Src/kem.c **** *
  44:Core/Src/kem.c **** * Returns 0 (success)
  45:Core/Src/kem.c **** **************************************************/
  46:Core/Src/kem.c **** int crypto_kem_enc(unsigned char *ct, unsigned char *ss, const unsigned char *pk)
  47:Core/Src/kem.c **** {
 105              		.loc 1 47 1 is_stmt 1 view -0
 106              		.cfi_startproc
 107              		@ args = 0, pretend = 0, frame = 128
 108              		@ frame_needed = 0, uses_anonymous_args = 0
 109              		.loc 1 47 1 is_stmt 0 view .LVU22
 110 0000 70B5     		push	{r4, r5, r6, lr}
 111              	.LCFI1:
 112              		.cfi_def_cfa_offset 16
 113              		.cfi_offset 4, -16
 114              		.cfi_offset 5, -12
 115              		.cfi_offset 6, -8
 116              		.cfi_offset 14, -4
 117 0002 A0B0     		sub	sp, sp, #128
 118              	.LCFI2:
 119              		.cfi_def_cfa_offset 144
 120 0004 0446     		mov	r4, r0
 121 0006 0E46     		mov	r6, r1
 122 0008 1546     		mov	r5, r2
  48:Core/Src/kem.c ****   int i;
 123              		.loc 1 48 3 is_stmt 1 view .LVU23
ARM GAS  C:\Users\11410\AppData\Local\Temp\ccEN7EhN.s 			page 4


  49:Core/Src/kem.c **** 
  50:Core/Src/kem.c ****   unsigned char  kr[2*KYBER_SYMBYTES];                                        /* Will contain key, 
 124              		.loc 1 50 3 view .LVU24
  51:Core/Src/kem.c ****   unsigned char buf[2*KYBER_SYMBYTES];                          
 125              		.loc 1 51 3 view .LVU25
  52:Core/Src/kem.c **** 
  53:Core/Src/kem.c ****   randombytes(buf, KYBER_SYMBYTES);
 126              		.loc 1 53 3 view .LVU26
 127 000a 2022     		movs	r2, #32
 128              	.LVL8:
 129              		.loc 1 53 3 is_stmt 0 view .LVU27
 130 000c 0023     		movs	r3, #0
 131 000e 6846     		mov	r0, sp
 132              	.LVL9:
 133              		.loc 1 53 3 view .LVU28
 134 0010 FFF7FEFF 		bl	randombytes
 135              	.LVL10:
  54:Core/Src/kem.c **** 
  55:Core/Src/kem.c ****   sha3_256(buf,buf,KYBER_SYMBYTES);                                           /* Don't release syst
 136              		.loc 1 55 3 is_stmt 1 view .LVU29
 137 0014 2022     		movs	r2, #32
 138 0016 0023     		movs	r3, #0
 139 0018 6946     		mov	r1, sp
 140 001a 6846     		mov	r0, sp
 141 001c FFF7FEFF 		bl	sha3_256
 142              	.LVL11:
  56:Core/Src/kem.c **** 
  57:Core/Src/kem.c ****   sha3_256(buf+KYBER_SYMBYTES, pk, KYBER_PUBLICKEYBYTES);                     /* Multitarget counte
 143              		.loc 1 57 3 view .LVU30
 144 0020 4FF48862 		mov	r2, #1088
 145 0024 0023     		movs	r3, #0
 146 0026 2946     		mov	r1, r5
 147 0028 08A8     		add	r0, sp, #32
 148 002a FFF7FEFF 		bl	sha3_256
 149              	.LVL12:
  58:Core/Src/kem.c ****   sha3_512(kr, buf, 2*KYBER_SYMBYTES);
 150              		.loc 1 58 3 view .LVU31
 151 002e 4022     		movs	r2, #64
 152 0030 0023     		movs	r3, #0
 153 0032 6946     		mov	r1, sp
 154 0034 10A8     		add	r0, sp, #64
 155 0036 FFF7FEFF 		bl	sha3_512
 156              	.LVL13:
  59:Core/Src/kem.c **** /*********************************************************/
  60:Core/Src/kem.c ****   // printf("\n");
  61:Core/Src/kem.c ****   // printf("pt: "); 
  62:Core/Src/kem.c ****   // for (i = 0; i < 32; i++) {
  63:Core/Src/kem.c ****   //     //buf[i]=0;
  64:Core/Src/kem.c ****   //     printf("%02x", buf[i]);
  65:Core/Src/kem.c ****   // }
  66:Core/Src/kem.c ****   // printf("\n");
  67:Core/Src/kem.c ****   // printf("pp: "); 
  68:Core/Src/kem.c ****   // for (i = 32; i < 64; i++){
  69:Core/Src/kem.c ****   //   //kr[i]=0;
  70:Core/Src/kem.c ****   //   printf("%02x", kr[i]);
  71:Core/Src/kem.c ****   // } 
  72:Core/Src/kem.c **** /*********************************************************/
ARM GAS  C:\Users\11410\AppData\Local\Temp\ccEN7EhN.s 			page 5


  73:Core/Src/kem.c ****   indcpa_enc(ct, buf, pk, kr+KYBER_SYMBYTES);                                 /* coins are in kr+KY
 157              		.loc 1 73 3 view .LVU32
 158 003a 18AB     		add	r3, sp, #96
 159 003c 2A46     		mov	r2, r5
 160 003e 6946     		mov	r1, sp
 161 0040 2046     		mov	r0, r4
 162 0042 FFF7FEFF 		bl	indcpa_enc
 163              	.LVL14:
  74:Core/Src/kem.c **** /*********************************************************/  
  75:Core/Src/kem.c ****   // printf("\n");
  76:Core/Src/kem.c ****   // printf("ct: ");        
  77:Core/Src/kem.c ****   // for (i = 0; i < 32; i++) printf("%02x", ct[i]);
  78:Core/Src/kem.c **** /*********************************************************/
  79:Core/Src/kem.c ****   sha3_256(kr+KYBER_SYMBYTES, ct, KYBER_CIPHERTEXTBYTES);                     /* overwrite coins in
 164              		.loc 1 79 3 view .LVU33
 165 0046 4FF49062 		mov	r2, #1152
 166 004a 0023     		movs	r3, #0
 167 004c 2146     		mov	r1, r4
 168 004e 18A8     		add	r0, sp, #96
 169 0050 FFF7FEFF 		bl	sha3_256
 170              	.LVL15:
  80:Core/Src/kem.c ****   sha3_256(ss, kr, 2*KYBER_SYMBYTES);                                         /* hash concatenation
 171              		.loc 1 80 3 view .LVU34
 172 0054 4022     		movs	r2, #64
 173 0056 0023     		movs	r3, #0
 174 0058 10A9     		add	r1, sp, #64
 175 005a 3046     		mov	r0, r6
 176 005c FFF7FEFF 		bl	sha3_256
 177              	.LVL16:
  81:Core/Src/kem.c ****   
  82:Core/Src/kem.c ****   return 0;
 178              		.loc 1 82 3 view .LVU35
  83:Core/Src/kem.c **** }
 179              		.loc 1 83 1 is_stmt 0 view .LVU36
 180 0060 0020     		movs	r0, #0
 181 0062 20B0     		add	sp, sp, #128
 182              	.LCFI3:
 183              		.cfi_def_cfa_offset 16
 184              		@ sp needed
 185 0064 70BD     		pop	{r4, r5, r6, pc}
 186              		.loc 1 83 1 view .LVU37
 187              		.cfi_endproc
 188              	.LFE134:
 190              		.section	.text.crypto_kem_dec,"ax",%progbits
 191              		.align	1
 192              		.global	crypto_kem_dec
 193              		.syntax unified
 194              		.thumb
 195              		.thumb_func
 196              		.fpu fpv4-sp-d16
 198              	crypto_kem_dec:
 199              	.LVL17:
 200              	.LFB135:
  84:Core/Src/kem.c **** 
  85:Core/Src/kem.c **** /*************************************************
  86:Core/Src/kem.c **** * Name:        crypto_kem_dec
  87:Core/Src/kem.c **** *
ARM GAS  C:\Users\11410\AppData\Local\Temp\ccEN7EhN.s 			page 6


  88:Core/Src/kem.c **** * Description: Generates shared secret for given
  89:Core/Src/kem.c **** *              cipher text and private key
  90:Core/Src/kem.c **** *
  91:Core/Src/kem.c **** * Arguments:   - unsigned char *ss:       pointer to output shared secret (an already allocated arr
  92:Core/Src/kem.c **** *              - const unsigned char *ct: pointer to input cipher text (an already allocated array 
  93:Core/Src/kem.c **** *              - const unsigned char *sk: pointer to input private key (an already allocated array 
  94:Core/Src/kem.c **** *
  95:Core/Src/kem.c **** * Returns 0 for sucess or -1 for failure
  96:Core/Src/kem.c **** *
  97:Core/Src/kem.c **** * On failure, ss will contain a randomized value.
  98:Core/Src/kem.c **** **************************************************/
  99:Core/Src/kem.c **** int crypto_kem_dec(unsigned char *ss, const unsigned char *ct, const unsigned char *sk)
 100:Core/Src/kem.c **** {
 201              		.loc 1 100 1 is_stmt 1 view -0
 202              		.cfi_startproc
 203              		@ args = 0, pretend = 0, frame = 1280
 204              		@ frame_needed = 0, uses_anonymous_args = 0
 205              		.loc 1 100 1 is_stmt 0 view .LVU39
 206 0000 2DE9F047 		push	{r4, r5, r6, r7, r8, r9, r10, lr}
 207              	.LCFI4:
 208              		.cfi_def_cfa_offset 32
 209              		.cfi_offset 4, -32
 210              		.cfi_offset 5, -28
 211              		.cfi_offset 6, -24
 212              		.cfi_offset 7, -20
 213              		.cfi_offset 8, -16
 214              		.cfi_offset 9, -12
 215              		.cfi_offset 10, -8
 216              		.cfi_offset 14, -4
 217 0004 ADF5A06D 		sub	sp, sp, #1280
 218              	.LCFI5:
 219              		.cfi_def_cfa_offset 1312
 220 0008 8146     		mov	r9, r0
 221 000a 8846     		mov	r8, r1
 222 000c 1746     		mov	r7, r2
 101:Core/Src/kem.c ****   size_t i; 
 223              		.loc 1 101 3 is_stmt 1 view .LVU40
 102:Core/Src/kem.c ****   int fail;
 224              		.loc 1 102 3 view .LVU41
 103:Core/Src/kem.c ****   unsigned char cmp[KYBER_CIPHERTEXTBYTES];
 225              		.loc 1 103 3 view .LVU42
 104:Core/Src/kem.c ****   unsigned char buf[2*KYBER_SYMBYTES];
 226              		.loc 1 104 3 view .LVU43
 105:Core/Src/kem.c ****   unsigned char kr[2*KYBER_SYMBYTES];                                         /* Will contain key, 
 227              		.loc 1 105 3 view .LVU44
 106:Core/Src/kem.c ****   const unsigned char *pk = sk+KYBER_INDCPA_SECRETKEYBYTES;
 228              		.loc 1 106 3 view .LVU45
 229              		.loc 1 106 24 is_stmt 0 view .LVU46
 230 000e 02F59C6A 		add	r10, r2, #1248
 231              	.LVL18:
 107:Core/Src/kem.c **** /*********************************************************/
 108:Core/Src/kem.c ****   HAL_GPIO_WritePin(LED1_GPIO_Port,LED1_Pin,GPIO_PIN_RESET);
 232              		.loc 1 108 3 is_stmt 1 view .LVU47
 233 0012 244C     		ldr	r4, .L13
 234 0014 0022     		movs	r2, #0
 235              	.LVL19:
 236              		.loc 1 108 3 is_stmt 0 view .LVU48
ARM GAS  C:\Users\11410\AppData\Local\Temp\ccEN7EhN.s 			page 7


 237 0016 4021     		movs	r1, #64
 238              	.LVL20:
 239              		.loc 1 108 3 view .LVU49
 240 0018 2046     		mov	r0, r4
 241              	.LVL21:
 242              		.loc 1 108 3 view .LVU50
 243 001a FFF7FEFF 		bl	HAL_GPIO_WritePin
 244              	.LVL22:
 109:Core/Src/kem.c ****   indcpa_dec(buf, ct, sk);
 245              		.loc 1 109 3 is_stmt 1 view .LVU51
 246 001e 3A46     		mov	r2, r7
 247 0020 4146     		mov	r1, r8
 248 0022 10A8     		add	r0, sp, #64
 249 0024 FFF7FEFF 		bl	indcpa_dec
 250              	.LVL23:
 110:Core/Src/kem.c ****   HAL_GPIO_WritePin(LED1_GPIO_Port,LED1_Pin,GPIO_PIN_SET);
 251              		.loc 1 110 3 view .LVU52
 252 0028 0122     		movs	r2, #1
 253 002a 4021     		movs	r1, #64
 254 002c 2046     		mov	r0, r4
 255 002e FFF7FEFF 		bl	HAL_GPIO_WritePin
 256              	.LVL24:
 111:Core/Src/kem.c **** /*********************************************************/
 112:Core/Src/kem.c ****   // printf("\n");
 113:Core/Src/kem.c ****   // printf("pt: "); 
 114:Core/Src/kem.c ****   // for (i = 0; i < 32; i++) printf("%02x", buf[i]);     
 115:Core/Src/kem.c **** /*********************************************************/
 116:Core/Src/kem.c ****   for(i=0;i<KYBER_SYMBYTES;i++)                                                                    
 257              		.loc 1 116 3 view .LVU53
 258              		.loc 1 116 8 is_stmt 0 view .LVU54
 259 0032 0023     		movs	r3, #0
 260              	.LVL25:
 261              	.L9:
 262              		.loc 1 116 11 is_stmt 1 discriminator 1 view .LVU55
 263              		.loc 1 116 3 is_stmt 0 discriminator 1 view .LVU56
 264 0034 1F2B     		cmp	r3, #31
 265 0036 08D8     		bhi	.L12
 117:Core/Src/kem.c ****     buf[KYBER_SYMBYTES+i] = sk[KYBER_SECRETKEYBYTES-2*KYBER_SYMBYTES+i];      /* Save hash by stori
 266              		.loc 1 117 5 is_stmt 1 discriminator 3 view .LVU57
 267              		.loc 1 117 69 is_stmt 0 discriminator 3 view .LVU58
 268 0038 03F51262 		add	r2, r3, #2336
 269              		.loc 1 117 23 discriminator 3 view .LVU59
 270 003c 03F12004 		add	r4, r3, #32
 271              		.loc 1 117 31 discriminator 3 view .LVU60
 272 0040 BE5C     		ldrb	r6, [r7, r2]	@ zero_extendqisi2
 273              		.loc 1 117 27 discriminator 3 view .LVU61
 274 0042 10AD     		add	r5, sp, #64
 275 0044 2E55     		strb	r6, [r5, r4]
 116:Core/Src/kem.c ****     buf[KYBER_SYMBYTES+i] = sk[KYBER_SECRETKEYBYTES-2*KYBER_SYMBYTES+i];      /* Save hash by stori
 276              		.loc 1 116 28 is_stmt 1 discriminator 3 view .LVU62
 116:Core/Src/kem.c ****     buf[KYBER_SYMBYTES+i] = sk[KYBER_SECRETKEYBYTES-2*KYBER_SYMBYTES+i];      /* Save hash by stori
 277              		.loc 1 116 29 is_stmt 0 discriminator 3 view .LVU63
 278 0046 0133     		adds	r3, r3, #1
 279              	.LVL26:
 116:Core/Src/kem.c ****     buf[KYBER_SYMBYTES+i] = sk[KYBER_SECRETKEYBYTES-2*KYBER_SYMBYTES+i];      /* Save hash by stori
 280              		.loc 1 116 29 discriminator 3 view .LVU64
 281 0048 F4E7     		b	.L9
ARM GAS  C:\Users\11410\AppData\Local\Temp\ccEN7EhN.s 			page 8


 282              	.L12:
 118:Core/Src/kem.c ****   sha3_512(kr, buf, 2*KYBER_SYMBYTES);
 283              		.loc 1 118 3 is_stmt 1 view .LVU65
 284 004a 4022     		movs	r2, #64
 285 004c 0023     		movs	r3, #0
 286              	.LVL27:
 287              		.loc 1 118 3 is_stmt 0 view .LVU66
 288 004e 10A9     		add	r1, sp, #64
 289 0050 6846     		mov	r0, sp
 290 0052 FFF7FEFF 		bl	sha3_512
 291              	.LVL28:
 119:Core/Src/kem.c ****   // printf("\n");
 120:Core/Src/kem.c ****   // printf("kr: "); 
 121:Core/Src/kem.c ****   // for (i = 32; i < 64; i++) printf("%02x", kr[i]);    
 122:Core/Src/kem.c **** /*********************************************************/ 
 123:Core/Src/kem.c ****   indcpa_enc(cmp, buf, pk, kr+KYBER_SYMBYTES);                                /* coins are in kr+KY
 292              		.loc 1 123 3 is_stmt 1 view .LVU67
 293 0056 08AB     		add	r3, sp, #32
 294 0058 5246     		mov	r2, r10
 295 005a 10A9     		add	r1, sp, #64
 296 005c 20A8     		add	r0, sp, #128
 297 005e FFF7FEFF 		bl	indcpa_enc
 298              	.LVL29:
 124:Core/Src/kem.c **** /*********************************************************/
 125:Core/Src/kem.c ****   fail = verify(ct, cmp, KYBER_CIPHERTEXTBYTES);
 299              		.loc 1 125 3 view .LVU68
 300              		.loc 1 125 10 is_stmt 0 view .LVU69
 301 0062 4FF49062 		mov	r2, #1152
 302 0066 20A9     		add	r1, sp, #128
 303 0068 4046     		mov	r0, r8
 304 006a FFF7FEFF 		bl	verify
 305              	.LVL30:
 306 006e 0446     		mov	r4, r0
 307              	.LVL31:
 126:Core/Src/kem.c ****   // printf("\n");
 127:Core/Src/kem.c ****   // printf("fail: %02x\r\n",fail); 
 128:Core/Src/kem.c **** 
 129:Core/Src/kem.c ****   sha3_256(kr+KYBER_SYMBYTES, ct, KYBER_CIPHERTEXTBYTES);                     /* overwrite coins in
 308              		.loc 1 129 3 is_stmt 1 view .LVU70
 309 0070 4FF49062 		mov	r2, #1152
 310 0074 0023     		movs	r3, #0
 311 0076 4146     		mov	r1, r8
 312 0078 08A8     		add	r0, sp, #32
 313              	.LVL32:
 314              		.loc 1 129 3 is_stmt 0 view .LVU71
 315 007a FFF7FEFF 		bl	sha3_256
 316              	.LVL33:
 130:Core/Src/kem.c **** 
 131:Core/Src/kem.c ****   cmov(kr, sk+KYBER_SECRETKEYBYTES-KYBER_SYMBYTES, KYBER_SYMBYTES, fail);     /* Overwrite pre-k wi
 317              		.loc 1 131 3 is_stmt 1 view .LVU72
 318 007e E3B2     		uxtb	r3, r4
 319 0080 2022     		movs	r2, #32
 320 0082 07F51461 		add	r1, r7, #2368
 321 0086 6846     		mov	r0, sp
 322 0088 FFF7FEFF 		bl	cmov
 323              	.LVL34:
 132:Core/Src/kem.c **** 
ARM GAS  C:\Users\11410\AppData\Local\Temp\ccEN7EhN.s 			page 9


 133:Core/Src/kem.c ****   sha3_256(ss, kr, 2*KYBER_SYMBYTES);                                         /* hash concatenation
 324              		.loc 1 133 3 view .LVU73
 325 008c 4022     		movs	r2, #64
 326 008e 0023     		movs	r3, #0
 327 0090 6946     		mov	r1, sp
 328 0092 4846     		mov	r0, r9
 329 0094 FFF7FEFF 		bl	sha3_256
 330              	.LVL35:
 134:Core/Src/kem.c **** 
 135:Core/Src/kem.c ****   return -fail;
 331              		.loc 1 135 3 view .LVU74
 136:Core/Src/kem.c **** }
 332              		.loc 1 136 1 is_stmt 0 view .LVU75
 333 0098 6042     		rsbs	r0, r4, #0
 334 009a 0DF5A06D 		add	sp, sp, #1280
 335              	.LCFI6:
 336              		.cfi_def_cfa_offset 32
 337              		@ sp needed
 338 009e BDE8F087 		pop	{r4, r5, r6, r7, r8, r9, r10, pc}
 339              	.LVL36:
 340              	.L14:
 341              		.loc 1 136 1 view .LVU76
 342 00a2 00BF     		.align	2
 343              	.L13:
 344 00a4 00100240 		.word	1073876992
 345              		.cfi_endproc
 346              	.LFE135:
 348              		.text
 349              	.Letext0:
 350              		.file 2 "c:\\program files (x86)\\gnu tools arm embedded\\9 2019-q4-major\\arm-none-eabi\\include\
 351              		.file 3 "c:\\program files (x86)\\gnu tools arm embedded\\9 2019-q4-major\\arm-none-eabi\\include\
 352              		.file 4 "c:\\program files (x86)\\gnu tools arm embedded\\9 2019-q4-major\\lib\\gcc\\arm-none-eabi
 353              		.file 5 "c:\\program files (x86)\\gnu tools arm embedded\\9 2019-q4-major\\arm-none-eabi\\include\
 354              		.file 6 "c:\\program files (x86)\\gnu tools arm embedded\\9 2019-q4-major\\arm-none-eabi\\include\
 355              		.file 7 "c:\\program files (x86)\\gnu tools arm embedded\\9 2019-q4-major\\arm-none-eabi\\include\
 356              		.file 8 "Drivers/CMSIS/Include/core_cm4.h"
 357              		.file 9 "Drivers/CMSIS/Device/ST/STM32F4xx/Include/system_stm32f4xx.h"
 358              		.file 10 "Drivers/CMSIS/Device/ST/STM32F4xx/Include/stm32f407xx.h"
 359              		.file 11 "Drivers/STM32F4xx_HAL_Driver/Inc/stm32f4xx_hal_gpio.h"
 360              		.file 12 "Drivers/STM32F4xx_HAL_Driver/Inc/stm32f4xx_hal.h"
 361              		.file 13 "Core/Inc/indcpa.h"
 362              		.file 14 "Core/Inc/fips202.h"
 363              		.file 15 "Core/Inc/verify.h"
 364              		.file 16 "Core/Inc/randombytes.h"
ARM GAS  C:\Users\11410\AppData\Local\Temp\ccEN7EhN.s 			page 10

