ARM GAS  C:\Users\11410\AppData\Local\Temp\cc4IvIsj.s 			page 1


   1              		.cpu cortex-m4
   2              		.eabi_attribute 27, 1
   3              		.eabi_attribute 28, 1
   4              		.eabi_attribute 20, 1
   5              		.eabi_attribute 21, 1
   6              		.eabi_attribute 23, 3
   7              		.eabi_attribute 24, 1
   8              		.eabi_attribute 25, 1
   9              		.eabi_attribute 26, 1
  10              		.eabi_attribute 30, 1
  11              		.eabi_attribute 34, 1
  12              		.eabi_attribute 18, 4
  13              		.file	"main.c"
  14              		.text
  15              	.Ltext0:
  16              		.cfi_sections	.debug_frame
  17              		.section	.text.__io_putchar,"ax",%progbits
  18              		.align	1
  19              		.global	__io_putchar
  20              		.arch armv7e-m
  21              		.syntax unified
  22              		.thumb
  23              		.thumb_func
  24              		.fpu fpv4-sp-d16
  26              	__io_putchar:
  27              	.LVL0:
  28              	.LFB130:
  29              		.file 1 "Core/Src/main.c"
   1:Core/Src/main.c **** /* USER CODE BEGIN Header */
   2:Core/Src/main.c **** /**
   3:Core/Src/main.c ****   ******************************************************************************
   4:Core/Src/main.c ****   * @file           : main.c
   5:Core/Src/main.c ****   * @brief          : Main program body
   6:Core/Src/main.c ****   ******************************************************************************
   7:Core/Src/main.c ****   * @attention
   8:Core/Src/main.c ****   *
   9:Core/Src/main.c ****   * <h2><center>&copy; Copyright (c) 2023 STMicroelectronics.
  10:Core/Src/main.c ****   * All rights reserved.</center></h2>
  11:Core/Src/main.c ****   *
  12:Core/Src/main.c ****   * This software component is licensed by ST under BSD 3-Clause license,
  13:Core/Src/main.c ****   * the "License"; You may not use this file except in compliance with the
  14:Core/Src/main.c ****   * License. You may obtain a copy of the License at:
  15:Core/Src/main.c ****   *                        opensource.org/licenses/BSD-3-Clause
  16:Core/Src/main.c ****   *
  17:Core/Src/main.c ****   ******************************************************************************
  18:Core/Src/main.c ****   */
  19:Core/Src/main.c **** /* USER CODE END Header */
  20:Core/Src/main.c **** /* Includes ------------------------------------------------------------------*/
  21:Core/Src/main.c **** #include "main.h"
  22:Core/Src/main.c **** #include "tim.h"
  23:Core/Src/main.c **** #include "usart.h"
  24:Core/Src/main.c **** #include "gpio.h"
  25:Core/Src/main.c **** #include <stdlib.h>
  26:Core/Src/main.c **** 
  27:Core/Src/main.c **** #include "kex.h"
  28:Core/Src/main.c **** #include "ntt.h"
  29:Core/Src/main.c **** #include "randombytes.h" 
ARM GAS  C:\Users\11410\AppData\Local\Temp\cc4IvIsj.s 			page 2


  30:Core/Src/main.c **** /* Private includes ----------------------------------------------------------*/
  31:Core/Src/main.c **** /* USER CODE BEGIN Includes */
  32:Core/Src/main.c **** 
  33:Core/Src/main.c **** /* USER CODE END Includes */
  34:Core/Src/main.c **** 
  35:Core/Src/main.c **** /* Private typedef -----------------------------------------------------------*/
  36:Core/Src/main.c **** /* USER CODE BEGIN PTD */
  37:Core/Src/main.c **** 
  38:Core/Src/main.c **** /* USER CODE END PTD */
  39:Core/Src/main.c **** 
  40:Core/Src/main.c **** /* Private define ------------------------------------------------------------*/
  41:Core/Src/main.c **** /* USER CODE BEGIN PD */
  42:Core/Src/main.c **** /* USER CODE END PD */
  43:Core/Src/main.c **** 
  44:Core/Src/main.c **** /* Private macro -------------------------------------------------------------*/
  45:Core/Src/main.c **** /* USER CODE BEGIN PM */
  46:Core/Src/main.c **** 
  47:Core/Src/main.c **** /* USER CODE END PM */
  48:Core/Src/main.c **** 
  49:Core/Src/main.c **** /* Private variables ---------------------------------------------------------*/
  50:Core/Src/main.c **** 
  51:Core/Src/main.c **** /* USER CODE BEGIN PV */
  52:Core/Src/main.c **** #ifdef __GNUC__
  53:Core/Src/main.c **** 	#define PUTCHAR_PROTOTYPE int __io_putchar(int ch)
  54:Core/Src/main.c **** #else
  55:Core/Src/main.c **** 	#define PUTCHAR_PROTOTYPE int fputc(int ch, FILE *f)
  56:Core/Src/main.c **** #endif
  57:Core/Src/main.c **** PUTCHAR_PROTOTYPE
  58:Core/Src/main.c **** {
  30              		.loc 1 58 1 view -0
  31              		.cfi_startproc
  32              		@ args = 0, pretend = 0, frame = 8
  33              		@ frame_needed = 0, uses_anonymous_args = 0
  34              		.loc 1 58 1 is_stmt 0 view .LVU1
  35 0000 10B5     		push	{r4, lr}
  36              	.LCFI0:
  37              		.cfi_def_cfa_offset 8
  38              		.cfi_offset 4, -8
  39              		.cfi_offset 14, -4
  40 0002 82B0     		sub	sp, sp, #8
  41              	.LCFI1:
  42              		.cfi_def_cfa_offset 16
  43 0004 0446     		mov	r4, r0
  59:Core/Src/main.c ****   uint8_t temp[1]={ch};
  44              		.loc 1 59 3 is_stmt 1 view .LVU2
  45              		.loc 1 59 11 is_stmt 0 view .LVU3
  46 0006 8DF80400 		strb	r0, [sp, #4]
  60:Core/Src/main.c ****   HAL_UART_Transmit(&huart1,temp,1,0xffff);
  47              		.loc 1 60 3 is_stmt 1 view .LVU4
  48 000a 4FF6FF73 		movw	r3, #65535
  49 000e 0122     		movs	r2, #1
  50 0010 01A9     		add	r1, sp, #4
  51 0012 0348     		ldr	r0, .L3
  52              	.LVL1:
  53              		.loc 1 60 3 is_stmt 0 view .LVU5
  54 0014 FFF7FEFF 		bl	HAL_UART_Transmit
  55              	.LVL2:
ARM GAS  C:\Users\11410\AppData\Local\Temp\cc4IvIsj.s 			page 3


  61:Core/Src/main.c ****   return ch;
  56              		.loc 1 61 3 is_stmt 1 view .LVU6
  62:Core/Src/main.c **** }
  57              		.loc 1 62 1 is_stmt 0 view .LVU7
  58 0018 2046     		mov	r0, r4
  59 001a 02B0     		add	sp, sp, #8
  60              	.LCFI2:
  61              		.cfi_def_cfa_offset 8
  62              		@ sp needed
  63 001c 10BD     		pop	{r4, pc}
  64              	.LVL3:
  65              	.L4:
  66              		.loc 1 62 1 view .LVU8
  67 001e 00BF     		.align	2
  68              	.L3:
  69 0020 00000000 		.word	huart1
  70              		.cfi_endproc
  71              	.LFE130:
  73              		.section	.text._write,"ax",%progbits
  74              		.align	1
  75              		.global	_write
  76              		.syntax unified
  77              		.thumb
  78              		.thumb_func
  79              		.fpu fpv4-sp-d16
  81              	_write:
  82              	.LVL4:
  83              	.LFB131:
  63:Core/Src/main.c **** int _write(int file, char *ptr, int len)
  64:Core/Src/main.c **** {
  84              		.loc 1 64 1 is_stmt 1 view -0
  85              		.cfi_startproc
  86              		@ args = 0, pretend = 0, frame = 0
  87              		@ frame_needed = 0, uses_anonymous_args = 0
  88              		.loc 1 64 1 is_stmt 0 view .LVU10
  89 0000 70B5     		push	{r4, r5, r6, lr}
  90              	.LCFI3:
  91              		.cfi_def_cfa_offset 16
  92              		.cfi_offset 4, -16
  93              		.cfi_offset 5, -12
  94              		.cfi_offset 6, -8
  95              		.cfi_offset 14, -4
  96 0002 0C46     		mov	r4, r1
  97 0004 1646     		mov	r6, r2
  65:Core/Src/main.c ****   int DataIdx;
  98              		.loc 1 65 3 is_stmt 1 view .LVU11
  66:Core/Src/main.c ****   for (DataIdx=0;DataIdx<len;DataIdx++)
  99              		.loc 1 66 3 view .LVU12
 100              	.LVL5:
 101              		.loc 1 66 15 is_stmt 0 view .LVU13
 102 0006 0025     		movs	r5, #0
 103              	.LVL6:
 104              	.L6:
 105              		.loc 1 66 18 is_stmt 1 discriminator 1 view .LVU14
 106              		.loc 1 66 3 is_stmt 0 discriminator 1 view .LVU15
 107 0008 B542     		cmp	r5, r6
 108 000a 05DA     		bge	.L9
ARM GAS  C:\Users\11410\AppData\Local\Temp\cc4IvIsj.s 			page 4


  67:Core/Src/main.c ****   {
  68:Core/Src/main.c ****     __io_putchar(*ptr++);
 109              		.loc 1 68 5 is_stmt 1 discriminator 3 view .LVU16
 110              	.LVL7:
 111              		.loc 1 68 5 is_stmt 0 discriminator 3 view .LVU17
 112 000c 14F8010B 		ldrb	r0, [r4], #1	@ zero_extendqisi2
 113              	.LVL8:
 114              		.loc 1 68 5 discriminator 3 view .LVU18
 115 0010 FFF7FEFF 		bl	__io_putchar
 116              	.LVL9:
  66:Core/Src/main.c ****   for (DataIdx=0;DataIdx<len;DataIdx++)
 117              		.loc 1 66 30 is_stmt 1 discriminator 3 view .LVU19
  66:Core/Src/main.c ****   for (DataIdx=0;DataIdx<len;DataIdx++)
 118              		.loc 1 66 37 is_stmt 0 discriminator 3 view .LVU20
 119 0014 0135     		adds	r5, r5, #1
 120              	.LVL10:
  66:Core/Src/main.c ****   for (DataIdx=0;DataIdx<len;DataIdx++)
 121              		.loc 1 66 37 discriminator 3 view .LVU21
 122 0016 F7E7     		b	.L6
 123              	.L9:
  69:Core/Src/main.c ****   }
  70:Core/Src/main.c ****   return len;
 124              		.loc 1 70 3 is_stmt 1 view .LVU22
  71:Core/Src/main.c **** }
 125              		.loc 1 71 1 is_stmt 0 view .LVU23
 126 0018 3046     		mov	r0, r6
 127 001a 70BD     		pop	{r4, r5, r6, pc}
 128              		.loc 1 71 1 view .LVU24
 129              		.cfi_endproc
 130              	.LFE131:
 132              		.section	.text.Error_Handler,"ax",%progbits
 133              		.align	1
 134              		.global	Error_Handler
 135              		.syntax unified
 136              		.thumb
 137              		.thumb_func
 138              		.fpu fpv4-sp-d16
 140              	Error_Handler:
 141              	.LFB134:
  72:Core/Src/main.c **** /* USER CODE END PV */
  73:Core/Src/main.c **** 
  74:Core/Src/main.c **** /* Private function prototypes -----------------------------------------------*/
  75:Core/Src/main.c **** void SystemClock_Config(void);
  76:Core/Src/main.c **** /* USER CODE BEGIN PFP */
  77:Core/Src/main.c **** 
  78:Core/Src/main.c **** /* USER CODE END PFP */
  79:Core/Src/main.c **** 
  80:Core/Src/main.c **** /* Private user code ---------------------------------------------------------*/
  81:Core/Src/main.c **** /* USER CODE BEGIN 0 */
  82:Core/Src/main.c **** #define NTESTS 100
  83:Core/Src/main.c **** /* USER CODE END 0 */
  84:Core/Src/main.c **** 
  85:Core/Src/main.c **** /**
  86:Core/Src/main.c ****   * @brief  The application entry point.
  87:Core/Src/main.c ****   * @retval int
  88:Core/Src/main.c ****   */
  89:Core/Src/main.c **** int main(void)
ARM GAS  C:\Users\11410\AppData\Local\Temp\cc4IvIsj.s 			page 5


  90:Core/Src/main.c **** {
  91:Core/Src/main.c ****   /* USER CODE BEGIN 1 */
  92:Core/Src/main.c ****   int i;
  93:Core/Src/main.c **** 
  94:Core/Src/main.c ****   unsigned int
  95:Core/Src/main.c ****       t[NTESTS];  // = (unsigned int*) malloc(sizeof(unsigned int)*NTESTS);
  96:Core/Src/main.c ****   unsigned char sk_a[KYBER_SECRETKEYBYTES];
  97:Core/Src/main.c ****   unsigned char key_a[32], key_b[32];
  98:Core/Src/main.c ****   unsigned char *senda = (unsigned char *)malloc(KYBER_PUBLICKEYBYTES);
  99:Core/Src/main.c ****   unsigned char *sendb = (unsigned char *)malloc(KYBER_CIPHERTEXTBYTES);
 100:Core/Src/main.c **** 
 101:Core/Src/main.c **** 	uint8_t len;	  //串口数据长度
 102:Core/Src/main.c ****   uint8_t times;  //测试时间相关
 103:Core/Src/main.c ****   /* USER CODE END 1 */
 104:Core/Src/main.c **** 
 105:Core/Src/main.c ****   /* MCU Configuration--------------------------------------------------------*/
 106:Core/Src/main.c **** 
 107:Core/Src/main.c ****   /* Reset of all peripherals, Initializes the Flash interface and the Systick. */
 108:Core/Src/main.c ****   HAL_Init();
 109:Core/Src/main.c ****   /* Configure the system clock */
 110:Core/Src/main.c ****   SystemClock_Config();
 111:Core/Src/main.c ****   /* Initialize all configured peripherals */
 112:Core/Src/main.c ****   MX_GPIO_Init();
 113:Core/Src/main.c **** 
 114:Core/Src/main.c ****   MX_USART1_UART_Init();
 115:Core/Src/main.c ****   /* Infinite loop */
 116:Core/Src/main.c ****   /* USER CODE BEGIN WHILE */
 117:Core/Src/main.c ****   while (1)
 118:Core/Src/main.c ****   {
 119:Core/Src/main.c ****     /* USER CODE END WHILE */
 120:Core/Src/main.c ****  if(USART_RX_STA&0x8000)
 121:Core/Src/main.c **** 		{		   
 122:Core/Src/main.c **** 			len=USART_RX_STA&0x3fff;//数据长度
 123:Core/Src/main.c **** 			// printf("\r\nYou are sending a message as:%d\r\n",len);               
 124:Core/Src/main.c ****       // HAL_UART_Transmit(&huart1,(uint8_t*)USART_RX_BUF,len,1000);    
 125:Core/Src/main.c ****       // while(__HAL_UART_GET_FLAG(&huart1,UART_FLAG_TC)!=SET);
 126:Core/Src/main.c ****       // printf("\r\n");  
 127:Core/Src/main.c ****       crypto_kem_keypair(senda, sk_a);       
 128:Core/Src/main.c ****       for (i = 0; i < 32; i++) printf("%02x", sk_a[i]);
 129:Core/Src/main.c ****       crypto_kem_enc(sendb, key_b, senda);
 130:Core/Src/main.c ****       crypto_kem_dec(key_a, sendb, sk_a);
 131:Core/Src/main.c **** 
 132:Core/Src/main.c ****       free(senda);
 133:Core/Src/main.c ****       free(sendb);
 134:Core/Src/main.c ****       USART_RX_STA=0; 
 135:Core/Src/main.c **** 	  }else{
 136:Core/Src/main.c **** 			times++;
 137:Core/Src/main.c **** 			if(times%1000==0)
 138:Core/Src/main.c **** 			{     
 139:Core/Src/main.c **** 
 140:Core/Src/main.c **** 			}
 141:Core/Src/main.c ****     } 
 142:Core/Src/main.c ****     /* USER CODE BEGIN 3 */
 143:Core/Src/main.c ****   }
 144:Core/Src/main.c **** 
 145:Core/Src/main.c ****   /* USER CODE END 3 */
 146:Core/Src/main.c **** }
ARM GAS  C:\Users\11410\AppData\Local\Temp\cc4IvIsj.s 			page 6


 147:Core/Src/main.c **** 
 148:Core/Src/main.c **** /**
 149:Core/Src/main.c ****   * @brief System Clock Configuration
 150:Core/Src/main.c ****   * @retval None
 151:Core/Src/main.c ****   */
 152:Core/Src/main.c **** void SystemClock_Config(void)
 153:Core/Src/main.c **** {
 154:Core/Src/main.c ****   RCC_OscInitTypeDef RCC_OscInitStruct = {0};
 155:Core/Src/main.c ****   RCC_ClkInitTypeDef RCC_ClkInitStruct = {0};
 156:Core/Src/main.c **** 
 157:Core/Src/main.c ****   /** Configure the main internal regulator output voltage
 158:Core/Src/main.c ****   */
 159:Core/Src/main.c ****   __HAL_RCC_PWR_CLK_ENABLE();
 160:Core/Src/main.c ****   __HAL_PWR_VOLTAGESCALING_CONFIG(PWR_REGULATOR_VOLTAGE_SCALE1);
 161:Core/Src/main.c ****   /** Initializes the RCC Oscillators according to the specified parameters
 162:Core/Src/main.c ****   * in the RCC_OscInitTypeDef structure.
 163:Core/Src/main.c ****   */
 164:Core/Src/main.c ****   RCC_OscInitStruct.OscillatorType = RCC_OSCILLATORTYPE_HSI;
 165:Core/Src/main.c ****   RCC_OscInitStruct.HSIState = RCC_HSI_ON;
 166:Core/Src/main.c ****   RCC_OscInitStruct.HSICalibrationValue = RCC_HSICALIBRATION_DEFAULT;
 167:Core/Src/main.c ****   RCC_OscInitStruct.PLL.PLLState = RCC_PLL_ON;
 168:Core/Src/main.c ****   RCC_OscInitStruct.PLL.PLLSource = RCC_PLLSOURCE_HSI;
 169:Core/Src/main.c ****   RCC_OscInitStruct.PLL.PLLM = 8;
 170:Core/Src/main.c ****   RCC_OscInitStruct.PLL.PLLN = 50;
 171:Core/Src/main.c ****   RCC_OscInitStruct.PLL.PLLP = RCC_PLLP_DIV2;
 172:Core/Src/main.c ****   RCC_OscInitStruct.PLL.PLLQ = 4;
 173:Core/Src/main.c ****   if (HAL_RCC_OscConfig(&RCC_OscInitStruct) != HAL_OK)
 174:Core/Src/main.c ****   {
 175:Core/Src/main.c ****     Error_Handler();
 176:Core/Src/main.c ****   }
 177:Core/Src/main.c ****   /** Initializes the CPU, AHB and APB buses clocks
 178:Core/Src/main.c ****   */
 179:Core/Src/main.c ****   RCC_ClkInitStruct.ClockType = RCC_CLOCKTYPE_HCLK|RCC_CLOCKTYPE_SYSCLK
 180:Core/Src/main.c ****                               |RCC_CLOCKTYPE_PCLK1|RCC_CLOCKTYPE_PCLK2;
 181:Core/Src/main.c ****   RCC_ClkInitStruct.SYSCLKSource = RCC_SYSCLKSOURCE_PLLCLK;
 182:Core/Src/main.c ****   RCC_ClkInitStruct.AHBCLKDivider = RCC_SYSCLK_DIV2;
 183:Core/Src/main.c ****   RCC_ClkInitStruct.APB1CLKDivider = RCC_HCLK_DIV4;
 184:Core/Src/main.c ****   RCC_ClkInitStruct.APB2CLKDivider = RCC_HCLK_DIV4;
 185:Core/Src/main.c **** 
 186:Core/Src/main.c ****   if (HAL_RCC_ClockConfig(&RCC_ClkInitStruct, FLASH_LATENCY_0) != HAL_OK)
 187:Core/Src/main.c ****   {
 188:Core/Src/main.c ****     Error_Handler();
 189:Core/Src/main.c ****   }
 190:Core/Src/main.c **** }
 191:Core/Src/main.c **** 
 192:Core/Src/main.c **** /* USER CODE BEGIN 4 */
 193:Core/Src/main.c **** 
 194:Core/Src/main.c **** /* USER CODE END 4 */
 195:Core/Src/main.c **** 
 196:Core/Src/main.c **** /**
 197:Core/Src/main.c ****   * @brief  This function is executed in case of error occurrence.
 198:Core/Src/main.c ****   * @retval None
 199:Core/Src/main.c ****   */
 200:Core/Src/main.c **** void Error_Handler(void)
 201:Core/Src/main.c **** {
 142              		.loc 1 201 1 is_stmt 1 view -0
 143              		.cfi_startproc
ARM GAS  C:\Users\11410\AppData\Local\Temp\cc4IvIsj.s 			page 7


 144              		@ Volatile: function does not return.
 145              		@ args = 0, pretend = 0, frame = 0
 146              		@ frame_needed = 0, uses_anonymous_args = 0
 147              		@ link register save eliminated.
 202:Core/Src/main.c ****   /* USER CODE BEGIN Error_Handler_Debug */
 203:Core/Src/main.c ****   /* User can add his own implementation to report the HAL error return state */
 204:Core/Src/main.c ****   __disable_irq();
 148              		.loc 1 204 3 view .LVU26
 149              	.LBB4:
 150              	.LBI4:
 151              		.file 2 "Drivers/CMSIS/Include/cmsis_gcc.h"
   1:Drivers/CMSIS/Include/cmsis_gcc.h **** /**************************************************************************//**
   2:Drivers/CMSIS/Include/cmsis_gcc.h ****  * @file     cmsis_gcc.h
   3:Drivers/CMSIS/Include/cmsis_gcc.h ****  * @brief    CMSIS compiler GCC header file
   4:Drivers/CMSIS/Include/cmsis_gcc.h ****  * @version  V5.0.4
   5:Drivers/CMSIS/Include/cmsis_gcc.h ****  * @date     09. April 2018
   6:Drivers/CMSIS/Include/cmsis_gcc.h ****  ******************************************************************************/
   7:Drivers/CMSIS/Include/cmsis_gcc.h **** /*
   8:Drivers/CMSIS/Include/cmsis_gcc.h ****  * Copyright (c) 2009-2018 Arm Limited. All rights reserved.
   9:Drivers/CMSIS/Include/cmsis_gcc.h ****  *
  10:Drivers/CMSIS/Include/cmsis_gcc.h ****  * SPDX-License-Identifier: Apache-2.0
  11:Drivers/CMSIS/Include/cmsis_gcc.h ****  *
  12:Drivers/CMSIS/Include/cmsis_gcc.h ****  * Licensed under the Apache License, Version 2.0 (the License); you may
  13:Drivers/CMSIS/Include/cmsis_gcc.h ****  * not use this file except in compliance with the License.
  14:Drivers/CMSIS/Include/cmsis_gcc.h ****  * You may obtain a copy of the License at
  15:Drivers/CMSIS/Include/cmsis_gcc.h ****  *
  16:Drivers/CMSIS/Include/cmsis_gcc.h ****  * www.apache.org/licenses/LICENSE-2.0
  17:Drivers/CMSIS/Include/cmsis_gcc.h ****  *
  18:Drivers/CMSIS/Include/cmsis_gcc.h ****  * Unless required by applicable law or agreed to in writing, software
  19:Drivers/CMSIS/Include/cmsis_gcc.h ****  * distributed under the License is distributed on an AS IS BASIS, WITHOUT
  20:Drivers/CMSIS/Include/cmsis_gcc.h ****  * WARRANTIES OR CONDITIONS OF ANY KIND, either express or implied.
  21:Drivers/CMSIS/Include/cmsis_gcc.h ****  * See the License for the specific language governing permissions and
  22:Drivers/CMSIS/Include/cmsis_gcc.h ****  * limitations under the License.
  23:Drivers/CMSIS/Include/cmsis_gcc.h ****  */
  24:Drivers/CMSIS/Include/cmsis_gcc.h **** 
  25:Drivers/CMSIS/Include/cmsis_gcc.h **** #ifndef __CMSIS_GCC_H
  26:Drivers/CMSIS/Include/cmsis_gcc.h **** #define __CMSIS_GCC_H
  27:Drivers/CMSIS/Include/cmsis_gcc.h **** 
  28:Drivers/CMSIS/Include/cmsis_gcc.h **** /* ignore some GCC warnings */
  29:Drivers/CMSIS/Include/cmsis_gcc.h **** #pragma GCC diagnostic push
  30:Drivers/CMSIS/Include/cmsis_gcc.h **** #pragma GCC diagnostic ignored "-Wsign-conversion"
  31:Drivers/CMSIS/Include/cmsis_gcc.h **** #pragma GCC diagnostic ignored "-Wconversion"
  32:Drivers/CMSIS/Include/cmsis_gcc.h **** #pragma GCC diagnostic ignored "-Wunused-parameter"
  33:Drivers/CMSIS/Include/cmsis_gcc.h **** 
  34:Drivers/CMSIS/Include/cmsis_gcc.h **** /* Fallback for __has_builtin */
  35:Drivers/CMSIS/Include/cmsis_gcc.h **** #ifndef __has_builtin
  36:Drivers/CMSIS/Include/cmsis_gcc.h ****   #define __has_builtin(x) (0)
  37:Drivers/CMSIS/Include/cmsis_gcc.h **** #endif
  38:Drivers/CMSIS/Include/cmsis_gcc.h **** 
  39:Drivers/CMSIS/Include/cmsis_gcc.h **** /* CMSIS compiler specific defines */
  40:Drivers/CMSIS/Include/cmsis_gcc.h **** #ifndef   __ASM
  41:Drivers/CMSIS/Include/cmsis_gcc.h ****   #define __ASM                                  __asm
  42:Drivers/CMSIS/Include/cmsis_gcc.h **** #endif
  43:Drivers/CMSIS/Include/cmsis_gcc.h **** #ifndef   __INLINE
  44:Drivers/CMSIS/Include/cmsis_gcc.h ****   #define __INLINE                               inline
  45:Drivers/CMSIS/Include/cmsis_gcc.h **** #endif
  46:Drivers/CMSIS/Include/cmsis_gcc.h **** #ifndef   __STATIC_INLINE
ARM GAS  C:\Users\11410\AppData\Local\Temp\cc4IvIsj.s 			page 8


  47:Drivers/CMSIS/Include/cmsis_gcc.h ****   #define __STATIC_INLINE                        static inline
  48:Drivers/CMSIS/Include/cmsis_gcc.h **** #endif
  49:Drivers/CMSIS/Include/cmsis_gcc.h **** #ifndef   __STATIC_FORCEINLINE                 
  50:Drivers/CMSIS/Include/cmsis_gcc.h ****   #define __STATIC_FORCEINLINE                   __attribute__((always_inline)) static inline
  51:Drivers/CMSIS/Include/cmsis_gcc.h **** #endif                                           
  52:Drivers/CMSIS/Include/cmsis_gcc.h **** #ifndef   __NO_RETURN
  53:Drivers/CMSIS/Include/cmsis_gcc.h ****   #define __NO_RETURN                            __attribute__((__noreturn__))
  54:Drivers/CMSIS/Include/cmsis_gcc.h **** #endif
  55:Drivers/CMSIS/Include/cmsis_gcc.h **** #ifndef   __USED
  56:Drivers/CMSIS/Include/cmsis_gcc.h ****   #define __USED                                 __attribute__((used))
  57:Drivers/CMSIS/Include/cmsis_gcc.h **** #endif
  58:Drivers/CMSIS/Include/cmsis_gcc.h **** #ifndef   __WEAK
  59:Drivers/CMSIS/Include/cmsis_gcc.h ****   #define __WEAK                                 __attribute__((weak))
  60:Drivers/CMSIS/Include/cmsis_gcc.h **** #endif
  61:Drivers/CMSIS/Include/cmsis_gcc.h **** #ifndef   __PACKED
  62:Drivers/CMSIS/Include/cmsis_gcc.h ****   #define __PACKED                               __attribute__((packed, aligned(1)))
  63:Drivers/CMSIS/Include/cmsis_gcc.h **** #endif
  64:Drivers/CMSIS/Include/cmsis_gcc.h **** #ifndef   __PACKED_STRUCT
  65:Drivers/CMSIS/Include/cmsis_gcc.h ****   #define __PACKED_STRUCT                        struct __attribute__((packed, aligned(1)))
  66:Drivers/CMSIS/Include/cmsis_gcc.h **** #endif
  67:Drivers/CMSIS/Include/cmsis_gcc.h **** #ifndef   __PACKED_UNION
  68:Drivers/CMSIS/Include/cmsis_gcc.h ****   #define __PACKED_UNION                         union __attribute__((packed, aligned(1)))
  69:Drivers/CMSIS/Include/cmsis_gcc.h **** #endif
  70:Drivers/CMSIS/Include/cmsis_gcc.h **** #ifndef   __UNALIGNED_UINT32        /* deprecated */
  71:Drivers/CMSIS/Include/cmsis_gcc.h ****   #pragma GCC diagnostic push
  72:Drivers/CMSIS/Include/cmsis_gcc.h ****   #pragma GCC diagnostic ignored "-Wpacked"
  73:Drivers/CMSIS/Include/cmsis_gcc.h ****   #pragma GCC diagnostic ignored "-Wattributes"
  74:Drivers/CMSIS/Include/cmsis_gcc.h ****   struct __attribute__((packed)) T_UINT32 { uint32_t v; };
  75:Drivers/CMSIS/Include/cmsis_gcc.h ****   #pragma GCC diagnostic pop
  76:Drivers/CMSIS/Include/cmsis_gcc.h ****   #define __UNALIGNED_UINT32(x)                  (((struct T_UINT32 *)(x))->v)
  77:Drivers/CMSIS/Include/cmsis_gcc.h **** #endif
  78:Drivers/CMSIS/Include/cmsis_gcc.h **** #ifndef   __UNALIGNED_UINT16_WRITE
  79:Drivers/CMSIS/Include/cmsis_gcc.h ****   #pragma GCC diagnostic push
  80:Drivers/CMSIS/Include/cmsis_gcc.h ****   #pragma GCC diagnostic ignored "-Wpacked"
  81:Drivers/CMSIS/Include/cmsis_gcc.h ****   #pragma GCC diagnostic ignored "-Wattributes"
  82:Drivers/CMSIS/Include/cmsis_gcc.h ****   __PACKED_STRUCT T_UINT16_WRITE { uint16_t v; };
  83:Drivers/CMSIS/Include/cmsis_gcc.h ****   #pragma GCC diagnostic pop
  84:Drivers/CMSIS/Include/cmsis_gcc.h ****   #define __UNALIGNED_UINT16_WRITE(addr, val)    (void)((((struct T_UINT16_WRITE *)(void *)(addr))-
  85:Drivers/CMSIS/Include/cmsis_gcc.h **** #endif
  86:Drivers/CMSIS/Include/cmsis_gcc.h **** #ifndef   __UNALIGNED_UINT16_READ
  87:Drivers/CMSIS/Include/cmsis_gcc.h ****   #pragma GCC diagnostic push
  88:Drivers/CMSIS/Include/cmsis_gcc.h ****   #pragma GCC diagnostic ignored "-Wpacked"
  89:Drivers/CMSIS/Include/cmsis_gcc.h ****   #pragma GCC diagnostic ignored "-Wattributes"
  90:Drivers/CMSIS/Include/cmsis_gcc.h ****   __PACKED_STRUCT T_UINT16_READ { uint16_t v; };
  91:Drivers/CMSIS/Include/cmsis_gcc.h ****   #pragma GCC diagnostic pop
  92:Drivers/CMSIS/Include/cmsis_gcc.h ****   #define __UNALIGNED_UINT16_READ(addr)          (((const struct T_UINT16_READ *)(const void *)(add
  93:Drivers/CMSIS/Include/cmsis_gcc.h **** #endif
  94:Drivers/CMSIS/Include/cmsis_gcc.h **** #ifndef   __UNALIGNED_UINT32_WRITE
  95:Drivers/CMSIS/Include/cmsis_gcc.h ****   #pragma GCC diagnostic push
  96:Drivers/CMSIS/Include/cmsis_gcc.h ****   #pragma GCC diagnostic ignored "-Wpacked"
  97:Drivers/CMSIS/Include/cmsis_gcc.h ****   #pragma GCC diagnostic ignored "-Wattributes"
  98:Drivers/CMSIS/Include/cmsis_gcc.h ****   __PACKED_STRUCT T_UINT32_WRITE { uint32_t v; };
  99:Drivers/CMSIS/Include/cmsis_gcc.h ****   #pragma GCC diagnostic pop
 100:Drivers/CMSIS/Include/cmsis_gcc.h ****   #define __UNALIGNED_UINT32_WRITE(addr, val)    (void)((((struct T_UINT32_WRITE *)(void *)(addr))-
 101:Drivers/CMSIS/Include/cmsis_gcc.h **** #endif
 102:Drivers/CMSIS/Include/cmsis_gcc.h **** #ifndef   __UNALIGNED_UINT32_READ
 103:Drivers/CMSIS/Include/cmsis_gcc.h ****   #pragma GCC diagnostic push
ARM GAS  C:\Users\11410\AppData\Local\Temp\cc4IvIsj.s 			page 9


 104:Drivers/CMSIS/Include/cmsis_gcc.h ****   #pragma GCC diagnostic ignored "-Wpacked"
 105:Drivers/CMSIS/Include/cmsis_gcc.h ****   #pragma GCC diagnostic ignored "-Wattributes"
 106:Drivers/CMSIS/Include/cmsis_gcc.h ****   __PACKED_STRUCT T_UINT32_READ { uint32_t v; };
 107:Drivers/CMSIS/Include/cmsis_gcc.h ****   #pragma GCC diagnostic pop
 108:Drivers/CMSIS/Include/cmsis_gcc.h ****   #define __UNALIGNED_UINT32_READ(addr)          (((const struct T_UINT32_READ *)(const void *)(add
 109:Drivers/CMSIS/Include/cmsis_gcc.h **** #endif
 110:Drivers/CMSIS/Include/cmsis_gcc.h **** #ifndef   __ALIGNED
 111:Drivers/CMSIS/Include/cmsis_gcc.h ****   #define __ALIGNED(x)                           __attribute__((aligned(x)))
 112:Drivers/CMSIS/Include/cmsis_gcc.h **** #endif
 113:Drivers/CMSIS/Include/cmsis_gcc.h **** #ifndef   __RESTRICT
 114:Drivers/CMSIS/Include/cmsis_gcc.h ****   #define __RESTRICT                             __restrict
 115:Drivers/CMSIS/Include/cmsis_gcc.h **** #endif
 116:Drivers/CMSIS/Include/cmsis_gcc.h **** 
 117:Drivers/CMSIS/Include/cmsis_gcc.h **** 
 118:Drivers/CMSIS/Include/cmsis_gcc.h **** /* ###########################  Core Function Access  ########################### */
 119:Drivers/CMSIS/Include/cmsis_gcc.h **** /** \ingroup  CMSIS_Core_FunctionInterface
 120:Drivers/CMSIS/Include/cmsis_gcc.h ****     \defgroup CMSIS_Core_RegAccFunctions CMSIS Core Register Access Functions
 121:Drivers/CMSIS/Include/cmsis_gcc.h ****   @{
 122:Drivers/CMSIS/Include/cmsis_gcc.h ****  */
 123:Drivers/CMSIS/Include/cmsis_gcc.h **** 
 124:Drivers/CMSIS/Include/cmsis_gcc.h **** /**
 125:Drivers/CMSIS/Include/cmsis_gcc.h ****   \brief   Enable IRQ Interrupts
 126:Drivers/CMSIS/Include/cmsis_gcc.h ****   \details Enables IRQ interrupts by clearing the I-bit in the CPSR.
 127:Drivers/CMSIS/Include/cmsis_gcc.h ****            Can only be executed in Privileged modes.
 128:Drivers/CMSIS/Include/cmsis_gcc.h ****  */
 129:Drivers/CMSIS/Include/cmsis_gcc.h **** __STATIC_FORCEINLINE void __enable_irq(void)
 130:Drivers/CMSIS/Include/cmsis_gcc.h **** {
 131:Drivers/CMSIS/Include/cmsis_gcc.h ****   __ASM volatile ("cpsie i" : : : "memory");
 132:Drivers/CMSIS/Include/cmsis_gcc.h **** }
 133:Drivers/CMSIS/Include/cmsis_gcc.h **** 
 134:Drivers/CMSIS/Include/cmsis_gcc.h **** 
 135:Drivers/CMSIS/Include/cmsis_gcc.h **** /**
 136:Drivers/CMSIS/Include/cmsis_gcc.h ****   \brief   Disable IRQ Interrupts
 137:Drivers/CMSIS/Include/cmsis_gcc.h ****   \details Disables IRQ interrupts by setting the I-bit in the CPSR.
 138:Drivers/CMSIS/Include/cmsis_gcc.h ****            Can only be executed in Privileged modes.
 139:Drivers/CMSIS/Include/cmsis_gcc.h ****  */
 140:Drivers/CMSIS/Include/cmsis_gcc.h **** __STATIC_FORCEINLINE void __disable_irq(void)
 152              		.loc 2 140 27 view .LVU27
 153              	.LBB5:
 141:Drivers/CMSIS/Include/cmsis_gcc.h **** {
 142:Drivers/CMSIS/Include/cmsis_gcc.h ****   __ASM volatile ("cpsid i" : : : "memory");
 154              		.loc 2 142 3 view .LVU28
 155              		.syntax unified
 156              	@ 142 "Drivers/CMSIS/Include/cmsis_gcc.h" 1
 157 0000 72B6     		cpsid i
 158              	@ 0 "" 2
 159              		.thumb
 160              		.syntax unified
 161              	.L11:
 162              	.LBE5:
 163              	.LBE4:
 205:Core/Src/main.c ****   while (1)
 164              		.loc 1 205 3 discriminator 1 view .LVU29
 206:Core/Src/main.c ****   {
 207:Core/Src/main.c ****   }
 165              		.loc 1 207 3 discriminator 1 view .LVU30
 205:Core/Src/main.c ****   while (1)
ARM GAS  C:\Users\11410\AppData\Local\Temp\cc4IvIsj.s 			page 10


 166              		.loc 1 205 9 discriminator 1 view .LVU31
 167 0002 FEE7     		b	.L11
 168              		.cfi_endproc
 169              	.LFE134:
 171              		.section	.text.SystemClock_Config,"ax",%progbits
 172              		.align	1
 173              		.global	SystemClock_Config
 174              		.syntax unified
 175              		.thumb
 176              		.thumb_func
 177              		.fpu fpv4-sp-d16
 179              	SystemClock_Config:
 180              	.LFB133:
 153:Core/Src/main.c ****   RCC_OscInitTypeDef RCC_OscInitStruct = {0};
 181              		.loc 1 153 1 view -0
 182              		.cfi_startproc
 183              		@ args = 0, pretend = 0, frame = 80
 184              		@ frame_needed = 0, uses_anonymous_args = 0
 185 0000 00B5     		push	{lr}
 186              	.LCFI4:
 187              		.cfi_def_cfa_offset 4
 188              		.cfi_offset 14, -4
 189 0002 95B0     		sub	sp, sp, #84
 190              	.LCFI5:
 191              		.cfi_def_cfa_offset 88
 154:Core/Src/main.c ****   RCC_ClkInitTypeDef RCC_ClkInitStruct = {0};
 192              		.loc 1 154 3 view .LVU33
 154:Core/Src/main.c ****   RCC_ClkInitTypeDef RCC_ClkInitStruct = {0};
 193              		.loc 1 154 22 is_stmt 0 view .LVU34
 194 0004 3022     		movs	r2, #48
 195 0006 0021     		movs	r1, #0
 196 0008 08A8     		add	r0, sp, #32
 197 000a FFF7FEFF 		bl	memset
 198              	.LVL11:
 155:Core/Src/main.c **** 
 199              		.loc 1 155 3 is_stmt 1 view .LVU35
 155:Core/Src/main.c **** 
 200              		.loc 1 155 22 is_stmt 0 view .LVU36
 201 000e 0023     		movs	r3, #0
 202 0010 0393     		str	r3, [sp, #12]
 203 0012 0493     		str	r3, [sp, #16]
 204 0014 0593     		str	r3, [sp, #20]
 205 0016 0693     		str	r3, [sp, #24]
 206 0018 0793     		str	r3, [sp, #28]
 159:Core/Src/main.c ****   __HAL_PWR_VOLTAGESCALING_CONFIG(PWR_REGULATOR_VOLTAGE_SCALE1);
 207              		.loc 1 159 3 is_stmt 1 view .LVU37
 208              	.LBB6:
 159:Core/Src/main.c ****   __HAL_PWR_VOLTAGESCALING_CONFIG(PWR_REGULATOR_VOLTAGE_SCALE1);
 209              		.loc 1 159 3 view .LVU38
 210 001a 0193     		str	r3, [sp, #4]
 159:Core/Src/main.c ****   __HAL_PWR_VOLTAGESCALING_CONFIG(PWR_REGULATOR_VOLTAGE_SCALE1);
 211              		.loc 1 159 3 view .LVU39
 212 001c 1E4A     		ldr	r2, .L18
 213 001e 116C     		ldr	r1, [r2, #64]
 214 0020 41F08051 		orr	r1, r1, #268435456
 215 0024 1164     		str	r1, [r2, #64]
 159:Core/Src/main.c ****   __HAL_PWR_VOLTAGESCALING_CONFIG(PWR_REGULATOR_VOLTAGE_SCALE1);
ARM GAS  C:\Users\11410\AppData\Local\Temp\cc4IvIsj.s 			page 11


 216              		.loc 1 159 3 view .LVU40
 217 0026 126C     		ldr	r2, [r2, #64]
 218 0028 02F08052 		and	r2, r2, #268435456
 219 002c 0192     		str	r2, [sp, #4]
 159:Core/Src/main.c ****   __HAL_PWR_VOLTAGESCALING_CONFIG(PWR_REGULATOR_VOLTAGE_SCALE1);
 220              		.loc 1 159 3 view .LVU41
 221 002e 019A     		ldr	r2, [sp, #4]
 222              	.LBE6:
 159:Core/Src/main.c ****   __HAL_PWR_VOLTAGESCALING_CONFIG(PWR_REGULATOR_VOLTAGE_SCALE1);
 223              		.loc 1 159 3 view .LVU42
 160:Core/Src/main.c ****   /** Initializes the RCC Oscillators according to the specified parameters
 224              		.loc 1 160 3 view .LVU43
 225              	.LBB7:
 160:Core/Src/main.c ****   /** Initializes the RCC Oscillators according to the specified parameters
 226              		.loc 1 160 3 view .LVU44
 227 0030 0293     		str	r3, [sp, #8]
 160:Core/Src/main.c ****   /** Initializes the RCC Oscillators according to the specified parameters
 228              		.loc 1 160 3 view .LVU45
 229 0032 1A4A     		ldr	r2, .L18+4
 230 0034 1168     		ldr	r1, [r2]
 231 0036 41F48041 		orr	r1, r1, #16384
 232 003a 1160     		str	r1, [r2]
 160:Core/Src/main.c ****   /** Initializes the RCC Oscillators according to the specified parameters
 233              		.loc 1 160 3 view .LVU46
 234 003c 1268     		ldr	r2, [r2]
 235 003e 02F48042 		and	r2, r2, #16384
 236 0042 0292     		str	r2, [sp, #8]
 160:Core/Src/main.c ****   /** Initializes the RCC Oscillators according to the specified parameters
 237              		.loc 1 160 3 view .LVU47
 238 0044 029A     		ldr	r2, [sp, #8]
 239              	.LBE7:
 160:Core/Src/main.c ****   /** Initializes the RCC Oscillators according to the specified parameters
 240              		.loc 1 160 3 view .LVU48
 164:Core/Src/main.c ****   RCC_OscInitStruct.HSIState = RCC_HSI_ON;
 241              		.loc 1 164 3 view .LVU49
 164:Core/Src/main.c ****   RCC_OscInitStruct.HSIState = RCC_HSI_ON;
 242              		.loc 1 164 36 is_stmt 0 view .LVU50
 243 0046 0222     		movs	r2, #2
 244 0048 0892     		str	r2, [sp, #32]
 165:Core/Src/main.c ****   RCC_OscInitStruct.HSICalibrationValue = RCC_HSICALIBRATION_DEFAULT;
 245              		.loc 1 165 3 is_stmt 1 view .LVU51
 165:Core/Src/main.c ****   RCC_OscInitStruct.HSICalibrationValue = RCC_HSICALIBRATION_DEFAULT;
 246              		.loc 1 165 30 is_stmt 0 view .LVU52
 247 004a 0121     		movs	r1, #1
 248 004c 0B91     		str	r1, [sp, #44]
 166:Core/Src/main.c ****   RCC_OscInitStruct.PLL.PLLState = RCC_PLL_ON;
 249              		.loc 1 166 3 is_stmt 1 view .LVU53
 166:Core/Src/main.c ****   RCC_OscInitStruct.PLL.PLLState = RCC_PLL_ON;
 250              		.loc 1 166 41 is_stmt 0 view .LVU54
 251 004e 1021     		movs	r1, #16
 252 0050 0C91     		str	r1, [sp, #48]
 167:Core/Src/main.c ****   RCC_OscInitStruct.PLL.PLLSource = RCC_PLLSOURCE_HSI;
 253              		.loc 1 167 3 is_stmt 1 view .LVU55
 167:Core/Src/main.c ****   RCC_OscInitStruct.PLL.PLLSource = RCC_PLLSOURCE_HSI;
 254              		.loc 1 167 34 is_stmt 0 view .LVU56
 255 0052 0E92     		str	r2, [sp, #56]
 168:Core/Src/main.c ****   RCC_OscInitStruct.PLL.PLLM = 8;
ARM GAS  C:\Users\11410\AppData\Local\Temp\cc4IvIsj.s 			page 12


 256              		.loc 1 168 3 is_stmt 1 view .LVU57
 168:Core/Src/main.c ****   RCC_OscInitStruct.PLL.PLLM = 8;
 257              		.loc 1 168 35 is_stmt 0 view .LVU58
 258 0054 0F93     		str	r3, [sp, #60]
 169:Core/Src/main.c ****   RCC_OscInitStruct.PLL.PLLN = 50;
 259              		.loc 1 169 3 is_stmt 1 view .LVU59
 169:Core/Src/main.c ****   RCC_OscInitStruct.PLL.PLLN = 50;
 260              		.loc 1 169 30 is_stmt 0 view .LVU60
 261 0056 0823     		movs	r3, #8
 262 0058 1093     		str	r3, [sp, #64]
 170:Core/Src/main.c ****   RCC_OscInitStruct.PLL.PLLP = RCC_PLLP_DIV2;
 263              		.loc 1 170 3 is_stmt 1 view .LVU61
 170:Core/Src/main.c ****   RCC_OscInitStruct.PLL.PLLP = RCC_PLLP_DIV2;
 264              		.loc 1 170 30 is_stmt 0 view .LVU62
 265 005a 3223     		movs	r3, #50
 266 005c 1193     		str	r3, [sp, #68]
 171:Core/Src/main.c ****   RCC_OscInitStruct.PLL.PLLQ = 4;
 267              		.loc 1 171 3 is_stmt 1 view .LVU63
 171:Core/Src/main.c ****   RCC_OscInitStruct.PLL.PLLQ = 4;
 268              		.loc 1 171 30 is_stmt 0 view .LVU64
 269 005e 1292     		str	r2, [sp, #72]
 172:Core/Src/main.c ****   if (HAL_RCC_OscConfig(&RCC_OscInitStruct) != HAL_OK)
 270              		.loc 1 172 3 is_stmt 1 view .LVU65
 172:Core/Src/main.c ****   if (HAL_RCC_OscConfig(&RCC_OscInitStruct) != HAL_OK)
 271              		.loc 1 172 30 is_stmt 0 view .LVU66
 272 0060 0423     		movs	r3, #4
 273 0062 1393     		str	r3, [sp, #76]
 173:Core/Src/main.c ****   {
 274              		.loc 1 173 3 is_stmt 1 view .LVU67
 173:Core/Src/main.c ****   {
 275              		.loc 1 173 7 is_stmt 0 view .LVU68
 276 0064 08A8     		add	r0, sp, #32
 277 0066 FFF7FEFF 		bl	HAL_RCC_OscConfig
 278              	.LVL12:
 173:Core/Src/main.c ****   {
 279              		.loc 1 173 6 view .LVU69
 280 006a 88B9     		cbnz	r0, .L16
 179:Core/Src/main.c ****                               |RCC_CLOCKTYPE_PCLK1|RCC_CLOCKTYPE_PCLK2;
 281              		.loc 1 179 3 is_stmt 1 view .LVU70
 179:Core/Src/main.c ****                               |RCC_CLOCKTYPE_PCLK1|RCC_CLOCKTYPE_PCLK2;
 282              		.loc 1 179 31 is_stmt 0 view .LVU71
 283 006c 0F23     		movs	r3, #15
 284 006e 0393     		str	r3, [sp, #12]
 181:Core/Src/main.c ****   RCC_ClkInitStruct.AHBCLKDivider = RCC_SYSCLK_DIV2;
 285              		.loc 1 181 3 is_stmt 1 view .LVU72
 181:Core/Src/main.c ****   RCC_ClkInitStruct.AHBCLKDivider = RCC_SYSCLK_DIV2;
 286              		.loc 1 181 34 is_stmt 0 view .LVU73
 287 0070 0223     		movs	r3, #2
 288 0072 0493     		str	r3, [sp, #16]
 182:Core/Src/main.c ****   RCC_ClkInitStruct.APB1CLKDivider = RCC_HCLK_DIV4;
 289              		.loc 1 182 3 is_stmt 1 view .LVU74
 182:Core/Src/main.c ****   RCC_ClkInitStruct.APB1CLKDivider = RCC_HCLK_DIV4;
 290              		.loc 1 182 35 is_stmt 0 view .LVU75
 291 0074 8023     		movs	r3, #128
 292 0076 0593     		str	r3, [sp, #20]
 183:Core/Src/main.c ****   RCC_ClkInitStruct.APB2CLKDivider = RCC_HCLK_DIV4;
 293              		.loc 1 183 3 is_stmt 1 view .LVU76
ARM GAS  C:\Users\11410\AppData\Local\Temp\cc4IvIsj.s 			page 13


 183:Core/Src/main.c ****   RCC_ClkInitStruct.APB2CLKDivider = RCC_HCLK_DIV4;
 294              		.loc 1 183 36 is_stmt 0 view .LVU77
 295 0078 4FF4A053 		mov	r3, #5120
 296 007c 0693     		str	r3, [sp, #24]
 184:Core/Src/main.c **** 
 297              		.loc 1 184 3 is_stmt 1 view .LVU78
 184:Core/Src/main.c **** 
 298              		.loc 1 184 36 is_stmt 0 view .LVU79
 299 007e 0793     		str	r3, [sp, #28]
 186:Core/Src/main.c ****   {
 300              		.loc 1 186 3 is_stmt 1 view .LVU80
 186:Core/Src/main.c ****   {
 301              		.loc 1 186 7 is_stmt 0 view .LVU81
 302 0080 0021     		movs	r1, #0
 303 0082 03A8     		add	r0, sp, #12
 304 0084 FFF7FEFF 		bl	HAL_RCC_ClockConfig
 305              	.LVL13:
 186:Core/Src/main.c ****   {
 306              		.loc 1 186 6 view .LVU82
 307 0088 20B9     		cbnz	r0, .L17
 190:Core/Src/main.c **** 
 308              		.loc 1 190 1 view .LVU83
 309 008a 15B0     		add	sp, sp, #84
 310              	.LCFI6:
 311              		.cfi_remember_state
 312              		.cfi_def_cfa_offset 4
 313              		@ sp needed
 314 008c 5DF804FB 		ldr	pc, [sp], #4
 315              	.L16:
 316              	.LCFI7:
 317              		.cfi_restore_state
 175:Core/Src/main.c ****   }
 318              		.loc 1 175 5 is_stmt 1 view .LVU84
 319 0090 FFF7FEFF 		bl	Error_Handler
 320              	.LVL14:
 321              	.L17:
 188:Core/Src/main.c ****   }
 322              		.loc 1 188 5 view .LVU85
 323 0094 FFF7FEFF 		bl	Error_Handler
 324              	.LVL15:
 325              	.L19:
 326              		.align	2
 327              	.L18:
 328 0098 00380240 		.word	1073887232
 329 009c 00700040 		.word	1073770496
 330              		.cfi_endproc
 331              	.LFE133:
 333              		.section	.rodata.main.str1.4,"aMS",%progbits,1
 334              		.align	2
 335              	.LC0:
 336 0000 25303278 		.ascii	"%02x\000"
 336      00
 337              		.section	.text.main,"ax",%progbits
 338              		.align	1
 339              		.global	main
 340              		.syntax unified
 341              		.thumb
ARM GAS  C:\Users\11410\AppData\Local\Temp\cc4IvIsj.s 			page 14


 342              		.thumb_func
 343              		.fpu fpv4-sp-d16
 345              	main:
 346              	.LFB132:
  90:Core/Src/main.c ****   /* USER CODE BEGIN 1 */
 347              		.loc 1 90 1 view -0
 348              		.cfi_startproc
 349              		@ args = 0, pretend = 0, frame = 2464
 350              		@ frame_needed = 0, uses_anonymous_args = 0
 351 0000 70B5     		push	{r4, r5, r6, lr}
 352              	.LCFI8:
 353              		.cfi_def_cfa_offset 16
 354              		.cfi_offset 4, -16
 355              		.cfi_offset 5, -12
 356              		.cfi_offset 6, -8
 357              		.cfi_offset 14, -4
 358 0002 ADF51A6D 		sub	sp, sp, #2464
 359              	.LCFI9:
 360              		.cfi_def_cfa_offset 2480
  92:Core/Src/main.c **** 
 361              		.loc 1 92 3 view .LVU87
  94:Core/Src/main.c ****       t[NTESTS];  // = (unsigned int*) malloc(sizeof(unsigned int)*NTESTS);
 362              		.loc 1 94 3 view .LVU88
  96:Core/Src/main.c ****   unsigned char key_a[32], key_b[32];
 363              		.loc 1 96 3 view .LVU89
  97:Core/Src/main.c ****   unsigned char *senda = (unsigned char *)malloc(KYBER_PUBLICKEYBYTES);
 364              		.loc 1 97 3 view .LVU90
  98:Core/Src/main.c ****   unsigned char *sendb = (unsigned char *)malloc(KYBER_CIPHERTEXTBYTES);
 365              		.loc 1 98 3 view .LVU91
  98:Core/Src/main.c ****   unsigned char *sendb = (unsigned char *)malloc(KYBER_CIPHERTEXTBYTES);
 366              		.loc 1 98 43 is_stmt 0 view .LVU92
 367 0006 4FF48860 		mov	r0, #1088
 368 000a FFF7FEFF 		bl	malloc
 369              	.LVL16:
 370 000e 0646     		mov	r6, r0
 371              	.LVL17:
  99:Core/Src/main.c **** 
 372              		.loc 1 99 3 is_stmt 1 view .LVU93
  99:Core/Src/main.c **** 
 373              		.loc 1 99 43 is_stmt 0 view .LVU94
 374 0010 4FF49060 		mov	r0, #1152
 375              	.LVL18:
  99:Core/Src/main.c **** 
 376              		.loc 1 99 43 view .LVU95
 377 0014 FFF7FEFF 		bl	malloc
 378              	.LVL19:
 379 0018 0546     		mov	r5, r0
 380              	.LVL20:
 101:Core/Src/main.c ****   uint8_t times;  //测试时间相关
 381              		.loc 1 101 2 is_stmt 1 view .LVU96
 102:Core/Src/main.c ****   /* USER CODE END 1 */
 382              		.loc 1 102 3 view .LVU97
 108:Core/Src/main.c ****   /* Configure the system clock */
 383              		.loc 1 108 3 view .LVU98
 384 001a FFF7FEFF 		bl	HAL_Init
 385              	.LVL21:
 110:Core/Src/main.c ****   /* Initialize all configured peripherals */
ARM GAS  C:\Users\11410\AppData\Local\Temp\cc4IvIsj.s 			page 15


 386              		.loc 1 110 3 view .LVU99
 387 001e FFF7FEFF 		bl	SystemClock_Config
 388              	.LVL22:
 112:Core/Src/main.c **** 
 389              		.loc 1 112 3 view .LVU100
 390 0022 FFF7FEFF 		bl	MX_GPIO_Init
 391              	.LVL23:
 114:Core/Src/main.c ****   /* Infinite loop */
 392              		.loc 1 114 3 view .LVU101
 393 0026 FFF7FEFF 		bl	MX_USART1_UART_Init
 394              	.LVL24:
 395 002a 12E0     		b	.L21
 396              	.LVL25:
 397              	.L26:
 129:Core/Src/main.c ****       crypto_kem_dec(key_a, sendb, sk_a);
 398              		.loc 1 129 7 view .LVU102
 399 002c 3246     		mov	r2, r6
 400 002e 6946     		mov	r1, sp
 401 0030 2846     		mov	r0, r5
 402 0032 FFF7FEFF 		bl	crypto_kem_enc
 403              	.LVL26:
 130:Core/Src/main.c **** 
 404              		.loc 1 130 7 view .LVU103
 405 0036 10AA     		add	r2, sp, #64
 406 0038 2946     		mov	r1, r5
 407 003a 08A8     		add	r0, sp, #32
 408 003c FFF7FEFF 		bl	crypto_kem_dec
 409              	.LVL27:
 132:Core/Src/main.c ****       free(sendb);
 410              		.loc 1 132 7 view .LVU104
 411 0040 3046     		mov	r0, r6
 412 0042 FFF7FEFF 		bl	free
 413              	.LVL28:
 133:Core/Src/main.c ****       USART_RX_STA=0; 
 414              		.loc 1 133 7 view .LVU105
 415 0046 2846     		mov	r0, r5
 416 0048 FFF7FEFF 		bl	free
 417              	.LVL29:
 134:Core/Src/main.c **** 	  }else{
 418              		.loc 1 134 7 view .LVU106
 134:Core/Src/main.c **** 	  }else{
 419              		.loc 1 134 19 is_stmt 0 view .LVU107
 420 004c 0A4B     		ldr	r3, .L27
 421 004e 0022     		movs	r2, #0
 422 0050 1A80     		strh	r2, [r3]	@ movhi
 423              	.LVL30:
 424              	.L21:
 117:Core/Src/main.c ****   {
 425              		.loc 1 117 3 is_stmt 1 view .LVU108
 120:Core/Src/main.c **** 		{		   
 426              		.loc 1 120 2 view .LVU109
 120:Core/Src/main.c **** 		{		   
 427              		.loc 1 120 5 is_stmt 0 view .LVU110
 428 0052 094B     		ldr	r3, .L27
 429 0054 B3F90030 		ldrsh	r3, [r3]
 120:Core/Src/main.c **** 		{		   
 430              		.loc 1 120 4 view .LVU111
ARM GAS  C:\Users\11410\AppData\Local\Temp\cc4IvIsj.s 			page 16


 431 0058 002B     		cmp	r3, #0
 432 005a FADA     		bge	.L21
 122:Core/Src/main.c **** 			// printf("\r\nYou are sending a message as:%d\r\n",len);               
 433              		.loc 1 122 4 is_stmt 1 view .LVU112
 434              	.LVL31:
 127:Core/Src/main.c ****       for (i = 0; i < 32; i++) printf("%02x", sk_a[i]);
 435              		.loc 1 127 7 view .LVU113
 436 005c 10A9     		add	r1, sp, #64
 437 005e 3046     		mov	r0, r6
 438 0060 FFF7FEFF 		bl	crypto_kem_keypair
 439              	.LVL32:
 128:Core/Src/main.c ****       crypto_kem_enc(sendb, key_b, senda);
 440              		.loc 1 128 7 view .LVU114
 128:Core/Src/main.c ****       crypto_kem_enc(sendb, key_b, senda);
 441              		.loc 1 128 14 is_stmt 0 view .LVU115
 442 0064 0024     		movs	r4, #0
 443              	.LVL33:
 444              	.L22:
 128:Core/Src/main.c ****       crypto_kem_enc(sendb, key_b, senda);
 445              		.loc 1 128 19 is_stmt 1 discriminator 1 view .LVU116
 128:Core/Src/main.c ****       crypto_kem_enc(sendb, key_b, senda);
 446              		.loc 1 128 7 is_stmt 0 discriminator 1 view .LVU117
 447 0066 1F2C     		cmp	r4, #31
 448 0068 E0DC     		bgt	.L26
 449              	.LBB8:
 128:Core/Src/main.c ****       crypto_kem_enc(sendb, key_b, senda);
 450              		.loc 1 128 32 is_stmt 1 discriminator 3 view .LVU118
 451 006a 10AB     		add	r3, sp, #64
 452 006c 195D     		ldrb	r1, [r3, r4]	@ zero_extendqisi2
 453 006e 0348     		ldr	r0, .L27+4
 454 0070 FFF7FEFF 		bl	printf
 455              	.LVL34:
 456              	.LBE8:
 128:Core/Src/main.c ****       crypto_kem_enc(sendb, key_b, senda);
 457              		.loc 1 128 27 discriminator 3 view .LVU119
 128:Core/Src/main.c ****       crypto_kem_enc(sendb, key_b, senda);
 458              		.loc 1 128 28 is_stmt 0 discriminator 3 view .LVU120
 459 0074 0134     		adds	r4, r4, #1
 460              	.LVL35:
 128:Core/Src/main.c ****       crypto_kem_enc(sendb, key_b, senda);
 461              		.loc 1 128 28 discriminator 3 view .LVU121
 462 0076 F6E7     		b	.L22
 463              	.L28:
 464              		.align	2
 465              	.L27:
 466 0078 00000000 		.word	USART_RX_STA
 467 007c 00000000 		.word	.LC0
 468              		.cfi_endproc
 469              	.LFE132:
 471              		.text
 472              	.Letext0:
 473              		.file 3 "c:\\program files (x86)\\gnu tools arm embedded\\9 2019-q4-major\\arm-none-eabi\\include\
 474              		.file 4 "c:\\program files (x86)\\gnu tools arm embedded\\9 2019-q4-major\\arm-none-eabi\\include\
 475              		.file 5 "Drivers/CMSIS/Include/core_cm4.h"
 476              		.file 6 "Drivers/CMSIS/Device/ST/STM32F4xx/Include/system_stm32f4xx.h"
 477              		.file 7 "Drivers/CMSIS/Device/ST/STM32F4xx/Include/stm32f407xx.h"
 478              		.file 8 "Drivers/STM32F4xx_HAL_Driver/Inc/stm32f4xx_hal_def.h"
ARM GAS  C:\Users\11410\AppData\Local\Temp\cc4IvIsj.s 			page 17


 479              		.file 9 "Drivers/STM32F4xx_HAL_Driver/Inc/stm32f4xx_hal_rcc_ex.h"
 480              		.file 10 "Drivers/STM32F4xx_HAL_Driver/Inc/stm32f4xx_hal_rcc.h"
 481              		.file 11 "Drivers/STM32F4xx_HAL_Driver/Inc/stm32f4xx_hal_dma.h"
 482              		.file 12 "Drivers/STM32F4xx_HAL_Driver/Inc/stm32f4xx_hal_tim.h"
 483              		.file 13 "Drivers/STM32F4xx_HAL_Driver/Inc/stm32f4xx_hal_uart.h"
 484              		.file 14 "Drivers/STM32F4xx_HAL_Driver/Inc/stm32f4xx_hal.h"
 485              		.file 15 "Core/Inc/tim.h"
 486              		.file 16 "Core/Inc/usart.h"
 487              		.file 17 "c:\\program files (x86)\\gnu tools arm embedded\\9 2019-q4-major\\arm-none-eabi\\include
 488              		.file 18 "c:\\program files (x86)\\gnu tools arm embedded\\9 2019-q4-major\\arm-none-eabi\\include
 489              		.file 19 "c:\\program files (x86)\\gnu tools arm embedded\\9 2019-q4-major\\lib\\gcc\\arm-none-eab
 490              		.file 20 "c:\\program files (x86)\\gnu tools arm embedded\\9 2019-q4-major\\arm-none-eabi\\include
 491              		.file 21 "c:\\program files (x86)\\gnu tools arm embedded\\9 2019-q4-major\\arm-none-eabi\\include
 492              		.file 22 "<built-in>"
 493              		.file 23 "Core/Inc/gpio.h"
 494              		.file 24 "Core/Inc/api.h"
ARM GAS  C:\Users\11410\AppData\Local\Temp\cc4IvIsj.s 			page 18

